(imatplotlib.font_manager
FontManager
p1
(dp2
S'afm_lookup_cache'
p3
(dp4
sS'ttflist'
p5
(lp6
ccopy_reg
_reconstructor
p7
(cmatplotlib.font_manager
FontEntry
p8
c__builtin__
object
p9
NtRp10
(dp11
S'style'
p12
S'normal'
p13
sS'name'
p14
S'cmex10'
p15
sS'weight'
p16
I400
sS'stretch'
p17
g13
sS'variant'
p18
g13
sS'fname'
p19
S'/System/Library/Frameworks/Python.framework/Versions/2.7/Extras/lib/python/matplotlib/mpl-data/fonts/ttf/cmex10.ttf'
p20
sS'size'
p21
S'scalable'
p22
sbag7
(g8
g9
NtRp23
(dp24
g12
S'oblique'
p25
sg14
S'Bitstream Vera Sans'
p26
sg16
I700
sg17
g13
sg18
g13
sg19
S'/System/Library/Frameworks/Python.framework/Versions/2.7/Extras/lib/python/matplotlib/mpl-data/fonts/ttf/VeraBI.ttf'
p27
sg21
g22
sbag7
(g8
g9
NtRp28
(dp29
g12
g13
sg14
S'STIXNonUnicode'
p30
sg16
I400
sg17
g13
sg18
g13
sg19
S'/System/Library/Frameworks/Python.framework/Versions/2.7/Extras/lib/python/matplotlib/mpl-data/fonts/ttf/STIXNonUni.ttf'
p31
sg21
g22
sbag7
(g8
g9
NtRp32
(dp33
g12
g13
sg14
S'STIXNonUnicode'
p34
sg16
I700
sg17
g13
sg18
g13
sg19
S'/System/Library/Frameworks/Python.framework/Versions/2.7/Extras/lib/python/matplotlib/mpl-data/fonts/ttf/STIXNonUniBol.ttf'
p35
sg21
g22
sbag7
(g8
g9
NtRp36
(dp37
g12
g13
sg14
S'Bitstream Vera Sans Mono'
p38
sg16
I700
sg17
g13
sg18
g13
sg19
S'/System/Library/Frameworks/Python.framework/Versions/2.7/Extras/lib/python/matplotlib/mpl-data/fonts/ttf/VeraMoBd.ttf'
p39
sg21
g22
sbag7
(g8
g9
NtRp40
(dp41
g12
g13
sg14
S'cmr10'
p42
sg16
I400
sg17
g13
sg18
g13
sg19
S'/System/Library/Frameworks/Python.framework/Versions/2.7/Extras/lib/python/matplotlib/mpl-data/fonts/ttf/cmr10.ttf'
p43
sg21
g22
sbag7
(g8
g9
NtRp44
(dp45
g12
g13
sg14
S'STIXGeneral'
p46
sg16
I400
sg17
g13
sg18
g13
sg19
S'/System/Library/Frameworks/Python.framework/Versions/2.7/Extras/lib/python/matplotlib/mpl-data/fonts/ttf/STIXGeneral.ttf'
p47
sg21
g22
sbag7
(g8
g9
NtRp48
(dp49
g12
g25
sg14
S'Bitstream Vera Sans Mono'
p50
sg16
I400
sg17
g13
sg18
g13
sg19
S'/System/Library/Frameworks/Python.framework/Versions/2.7/Extras/lib/python/matplotlib/mpl-data/fonts/ttf/VeraMoIt.ttf'
p51
sg21
g22
sbag7
(g8
g9
NtRp52
(dp53
g12
g13
sg14
S'Bitstream Vera Serif'
p54
sg16
I400
sg17
g13
sg18
g13
sg19
S'/System/Library/Frameworks/Python.framework/Versions/2.7/Extras/lib/python/matplotlib/mpl-data/fonts/ttf/VeraSe.ttf'
p55
sg21
g22
sbag7
(g8
g9
NtRp56
(dp57
g12
g13
sg14
S'STIXSizeFiveSym'
p58
sg16
I400
sg17
g13
sg18
g13
sg19
S'/System/Library/Frameworks/Python.framework/Versions/2.7/Extras/lib/python/matplotlib/mpl-data/fonts/ttf/STIXSizFiveSymReg.ttf'
p59
sg21
g22
sbag7
(g8
g9
NtRp60
(dp61
g12
g13
sg14
S'Bitstream Vera Sans Mono'
p62
sg16
I400
sg17
g13
sg18
g13
sg19
S'/System/Library/Frameworks/Python.framework/Versions/2.7/Extras/lib/python/matplotlib/mpl-data/fonts/ttf/VeraMono.ttf'
p63
sg21
g22
sbag7
(g8
g9
NtRp64
(dp65
g12
g25
sg14
S'Bitstream Vera Sans Mono'
p66
sg16
I700
sg17
g13
sg18
g13
sg19
S'/System/Library/Frameworks/Python.framework/Versions/2.7/Extras/lib/python/matplotlib/mpl-data/fonts/ttf/VeraMoBI.ttf'
p67
sg21
g22
sbag7
(g8
g9
NtRp68
(dp69
g12
g13
sg14
S'STIXGeneral'
p70
sg16
I700
sg17
g13
sg18
g13
sg19
S'/System/Library/Frameworks/Python.framework/Versions/2.7/Extras/lib/python/matplotlib/mpl-data/fonts/ttf/STIXGeneralBol.ttf'
p71
sg21
g22
sbag7
(g8
g9
NtRp72
(dp73
g12
S'italic'
p74
sg14
S'STIXGeneral'
p75
sg16
I400
sg17
g13
sg18
g13
sg19
S'/System/Library/Frameworks/Python.framework/Versions/2.7/Extras/lib/python/matplotlib/mpl-data/fonts/ttf/STIXGeneralItalic.ttf'
p76
sg21
g22
sbag7
(g8
g9
NtRp77
(dp78
g12
g13
sg14
S'STIXSizeFourSym'
p79
sg16
I400
sg17
g13
sg18
g13
sg19
S'/System/Library/Frameworks/Python.framework/Versions/2.7/Extras/lib/python/matplotlib/mpl-data/fonts/ttf/STIXSizFourSymReg.ttf'
p80
sg21
g22
sbag7
(g8
g9
NtRp81
(dp82
g12
g13
sg14
S'STIXSizeThreeSym'
p83
sg16
I700
sg17
g13
sg18
g13
sg19
S'/System/Library/Frameworks/Python.framework/Versions/2.7/Extras/lib/python/matplotlib/mpl-data/fonts/ttf/STIXSizThreeSymBol.ttf'
p84
sg21
g22
sbag7
(g8
g9
NtRp85
(dp86
g12
g13
sg14
S'STIXSizeOneSym'
p87
sg16
I700
sg17
g13
sg18
g13
sg19
S'/System/Library/Frameworks/Python.framework/Versions/2.7/Extras/lib/python/matplotlib/mpl-data/fonts/ttf/STIXSizOneSymBol.ttf'
p88
sg21
g22
sbag7
(g8
g9
NtRp89
(dp90
g12
g13
sg14
S'STIXSizeFourSym'
p91
sg16
I700
sg17
g13
sg18
g13
sg19
S'/System/Library/Frameworks/Python.framework/Versions/2.7/Extras/lib/python/matplotlib/mpl-data/fonts/ttf/STIXSizFourSymBol.ttf'
p92
sg21
g22
sbag7
(g8
g9
NtRp93
(dp94
g12
g13
sg14
S'Bitstream Vera Sans'
p95
sg16
I700
sg17
g13
sg18
g13
sg19
S'/System/Library/Frameworks/Python.framework/Versions/2.7/Extras/lib/python/matplotlib/mpl-data/fonts/ttf/VeraBd.ttf'
p96
sg21
g22
sbag7
(g8
g9
NtRp97
(dp98
g12
g13
sg14
S'cmsy10'
p99
sg16
I400
sg17
g13
sg18
g13
sg19
S'/System/Library/Frameworks/Python.framework/Versions/2.7/Extras/lib/python/matplotlib/mpl-data/fonts/ttf/cmsy10.ttf'
p100
sg21
g22
sbag7
(g8
g9
NtRp101
(dp102
g12
g13
sg14
S'STIXSizeTwoSym'
p103
sg16
I400
sg17
g13
sg18
g13
sg19
S'/System/Library/Frameworks/Python.framework/Versions/2.7/Extras/lib/python/matplotlib/mpl-data/fonts/ttf/STIXSizTwoSymReg.ttf'
p104
sg21
g22
sbag7
(g8
g9
NtRp105
(dp106
g12
g74
sg14
S'STIXNonUnicode'
p107
sg16
I700
sg17
g13
sg18
g13
sg19
S'/System/Library/Frameworks/Python.framework/Versions/2.7/Extras/lib/python/matplotlib/mpl-data/fonts/ttf/STIXNonUniBolIta.ttf'
p108
sg21
g22
sbag7
(g8
g9
NtRp109
(dp110
g12
g13
sg14
S'cmb10'
p111
sg16
I400
sg17
g13
sg18
g13
sg19
S'/System/Library/Frameworks/Python.framework/Versions/2.7/Extras/lib/python/matplotlib/mpl-data/fonts/ttf/cmb10.ttf'
p112
sg21
g22
sbag7
(g8
g9
NtRp113
(dp114
g12
g13
sg14
S'cmss10'
p115
sg16
I400
sg17
g13
sg18
g13
sg19
S'/System/Library/Frameworks/Python.framework/Versions/2.7/Extras/lib/python/matplotlib/mpl-data/fonts/ttf/cmss10.ttf'
p116
sg21
g22
sbag7
(g8
g9
NtRp117
(dp118
g12
g13
sg14
S'STIXSizeThreeSym'
p119
sg16
I400
sg17
g13
sg18
g13
sg19
S'/System/Library/Frameworks/Python.framework/Versions/2.7/Extras/lib/python/matplotlib/mpl-data/fonts/ttf/STIXSizThreeSymReg.ttf'
p120
sg21
g22
sbag7
(g8
g9
NtRp121
(dp122
g12
g13
sg14
S'STIXSizeOneSym'
p123
sg16
I400
sg17
g13
sg18
g13
sg19
S'/System/Library/Frameworks/Python.framework/Versions/2.7/Extras/lib/python/matplotlib/mpl-data/fonts/ttf/STIXSizOneSymReg.ttf'
p124
sg21
g22
sbag7
(g8
g9
NtRp125
(dp126
g12
g13
sg14
S'Bitstream Vera Sans'
p127
sg16
I400
sg17
g13
sg18
g13
sg19
S'/System/Library/Frameworks/Python.framework/Versions/2.7/Extras/lib/python/matplotlib/mpl-data/fonts/ttf/Vera.ttf'
p128
sg21
g22
sbag7
(g8
g9
NtRp129
(dp130
g12
g13
sg14
S'cmmi10'
p131
sg16
I400
sg17
g13
sg18
g13
sg19
S'/System/Library/Frameworks/Python.framework/Versions/2.7/Extras/lib/python/matplotlib/mpl-data/fonts/ttf/cmmi10.ttf'
p132
sg21
g22
sbag7
(g8
g9
NtRp133
(dp134
g12
g13
sg14
S'Bitstream Vera Serif'
p135
sg16
I700
sg17
g13
sg18
g13
sg19
S'/System/Library/Frameworks/Python.framework/Versions/2.7/Extras/lib/python/matplotlib/mpl-data/fonts/ttf/VeraSeBd.ttf'
p136
sg21
g22
sbag7
(g8
g9
NtRp137
(dp138
g12
g25
sg14
S'Bitstream Vera Sans'
p139
sg16
I400
sg17
g13
sg18
g13
sg19
S'/System/Library/Frameworks/Python.framework/Versions/2.7/Extras/lib/python/matplotlib/mpl-data/fonts/ttf/VeraIt.ttf'
p140
sg21
g22
sbag7
(g8
g9
NtRp141
(dp142
g12
g13
sg14
S'STIXSizeTwoSym'
p143
sg16
I700
sg17
g13
sg18
g13
sg19
S'/System/Library/Frameworks/Python.framework/Versions/2.7/Extras/lib/python/matplotlib/mpl-data/fonts/ttf/STIXSizTwoSymBol.ttf'
p144
sg21
g22
sbag7
(g8
g9
NtRp145
(dp146
g12
g74
sg14
S'STIXNonUnicode'
p147
sg16
I400
sg17
g13
sg18
g13
sg19
S'/System/Library/Frameworks/Python.framework/Versions/2.7/Extras/lib/python/matplotlib/mpl-data/fonts/ttf/STIXNonUniIta.ttf'
p148
sg21
g22
sbag7
(g8
g9
NtRp149
(dp150
g12
g13
sg14
S'cmtt10'
p151
sg16
I400
sg17
g13
sg18
g13
sg19
S'/System/Library/Frameworks/Python.framework/Versions/2.7/Extras/lib/python/matplotlib/mpl-data/fonts/ttf/cmtt10.ttf'
p152
sg21
g22
sbag7
(g8
g9
NtRp153
(dp154
g12
g74
sg14
S'STIXGeneral'
p155
sg16
I700
sg17
g13
sg18
g13
sg19
S'/System/Library/Frameworks/Python.framework/Versions/2.7/Extras/lib/python/matplotlib/mpl-data/fonts/ttf/STIXGeneralBolIta.ttf'
p156
sg21
g22
sbag7
(g8
g9
NtRp157
(dp158
g12
g74
sg14
S'Trebuchet MS'
p159
sg16
I400
sg17
g13
sg18
g13
sg19
S'/Library/Fonts/Trebuchet MS Italic.ttf'
p160
sg21
g22
sbag7
(g8
g9
NtRp161
(dp162
g12
g13
sg14
S'Times New Roman'
p163
sg16
I500
sg17
g13
sg18
g13
sg19
S'/Library/Fonts/Times New Roman.ttf'
p164
sg21
g22
sbag7
(g8
g9
NtRp165
(dp166
g12
g74
sg14
S'Myriad Pro'
p167
sg16
I400
sg17
S'condensed'
p168
sg18
g13
sg19
S'/Library/Fonts/MyriadPro-CondIt.otf'
p169
sg21
g22
sbag7
(g8
g9
NtRp170
(dp171
g12
g13
sg14
S'Symbol Neu for Powerline'
p172
sg16
I400
sg17
g13
sg18
g13
sg19
S'/Users/adrianhsu/Library/Fonts/Symbol Neu for Powerline.ttf'
p173
sg21
g22
sbag7
(g8
g9
NtRp174
(dp175
g12
g13
sg14
S'Inconsolata-g for Powerline'
p176
sg16
I400
sg17
g13
sg18
g13
sg19
S'/Users/adrianhsu/Library/Fonts/Inconsolata-g for Powerline.otf'
p177
sg21
g22
sbag7
(g8
g9
NtRp178
(dp179
g12
g13
sg14
S'Poplar Std'
p180
sg16
I900
sg17
g13
sg18
g13
sg19
S'/Library/Fonts/PoplarStd.otf'
p181
sg21
g22
sbag7
(g8
g9
NtRp182
(dp183
g12
g13
sg14
S'Trajan Pro 3'
p184
sg16
I700
sg17
g13
sg18
g13
sg19
S'/Library/Fonts/TrajanPro3-Bold.otf'
p185
sg21
g22
sbag7
(g8
g9
NtRp186
(dp187
g12
g13
sg14
S'Kozuka Gothic Pr6N'
p188
sg16
I400
sg17
g13
sg18
g13
sg19
S'/Library/Fonts/KozGoPr6N-ExtraLight.otf'
p189
sg21
g22
sbag7
(g8
g9
NtRp190
(dp191
g12
g13
sg14
S'Arimo for Powerline'
p192
sg16
I700
sg17
g13
sg18
g13
sg19
S'/Users/adrianhsu/Library/Fonts/Arimo Bold for Powerline.ttf'
p193
sg21
g22
sbag7
(g8
g9
NtRp194
(dp195
g12
g74
sg14
S'Hack'
p196
sg16
I400
sg17
g13
sg18
g13
sg19
S'/Users/adrianhsu/Library/Fonts/Hack-Italic.ttf'
p197
sg21
g22
sbag7
(g8
g9
NtRp198
(dp199
g12
g74
sg14
S'Source Sans Pro'
p200
sg16
I900
sg17
g13
sg18
g13
sg19
S'/Library/Fonts/SourceSansPro-BlackIt.otf'
p201
sg21
g22
sbag7
(g8
g9
NtRp202
(dp203
g12
g13
sg14
S'.SF Compact Rounded'
p204
sg16
I400
sg17
g13
sg18
g13
sg19
S'/System/Library/Fonts/SFCompactRounded-Ultralight.otf'
p205
sg21
g22
sbag7
(g8
g9
NtRp206
(dp207
g12
g13
sg14
S'AppleMyungjo'
p208
sg16
I400
sg17
g13
sg18
g13
sg19
S'/Library/Fonts/AppleMyungjo.ttf'
p209
sg21
g22
sbag7
(g8
g9
NtRp210
(dp211
g12
g13
sg14
S'Roboto Mono Light for Powerline'
p212
sg16
I200
sg17
g13
sg18
g13
sg19
S'/Users/adrianhsu/Library/Fonts/Roboto Mono Light for Powerline.ttf'
p213
sg21
g22
sbag7
(g8
g9
NtRp214
(dp215
g12
g13
sg14
S'Mishafi Gold'
p216
sg16
I400
sg17
g13
sg18
g13
sg19
S'/Library/Fonts/Mishafi Gold.ttf'
p217
sg21
g22
sbag7
(g8
g9
NtRp218
(dp219
g12
g25
sg14
S'DejaVu Sans Mono for Powerline'
p220
sg16
I700
sg17
g13
sg18
g13
sg19
S'/Users/adrianhsu/Library/Fonts/DejaVu Sans Mono Bold Oblique for Powerline.ttf'
p221
sg21
g22
sbag7
(g8
g9
NtRp222
(dp223
g12
g13
sg14
S'Tinos for Powerline'
p224
sg16
I700
sg17
g13
sg18
g13
sg19
S'/Users/adrianhsu/Library/Fonts/Tinos Bold for Powerline.ttf'
p225
sg21
g22
sbag7
(g8
g9
NtRp226
(dp227
g12
g13
sg14
S'STIXSizeThreeSym'
p228
sg16
I700
sg17
g13
sg18
g13
sg19
S'/Library/Fonts/STIXSizThreeSymBol.otf'
p229
sg21
g22
sbag7
(g8
g9
NtRp230
(dp231
g12
g13
sg14
S'Kozuka Mincho Pr6N'
p232
sg16
I700
sg17
g13
sg18
g13
sg19
S'/Library/Fonts/KozMinPr6N-Heavy.otf'
p233
sg21
g22
sbag7
(g8
g9
NtRp234
(dp235
g12
g74
sg14
S'Myriad Pro'
p236
sg16
I400
sg17
g13
sg18
g13
sg19
S'/Library/Fonts/MyriadPro-It.otf'
p237
sg21
g22
sbag7
(g8
g9
NtRp238
(dp239
g12
g74
sg14
S'Cousine for Powerline'
p240
sg16
I700
sg17
g13
sg18
g13
sg19
S'/Users/adrianhsu/Library/Fonts/Cousine Bold Italic for Powerline.ttf'
p241
sg21
g22
sbag7
(g8
g9
NtRp242
(dp243
g12
g74
sg14
S'Minion Pro'
p244
sg16
I400
sg17
g13
sg18
g13
sg19
S'/Library/Fonts/MinionPro-It.otf'
p245
sg21
g22
sbag7
(g8
g9
NtRp246
(dp247
g12
g13
sg14
S'.SF Compact Rounded'
p248
sg16
I400
sg17
g13
sg18
g13
sg19
S'/System/Library/Fonts/SFCompactRounded-Light.otf'
p249
sg21
g22
sbag7
(g8
g9
NtRp250
(dp251
g12
g13
sg14
S'monofur for Powerline'
p252
sg16
I400
sg17
g13
sg18
g13
sg19
S'/Users/adrianhsu/Library/Fonts/Monofur for Powerline.ttf'
p253
sg21
g22
sbag7
(g8
g9
NtRp254
(dp255
g12
g13
sg14
S'Kozuka Gothic Pr6N'
p256
sg16
I400
sg17
g13
sg18
g13
sg19
S'/Library/Fonts/KozGoPr6N-Regular.otf'
p257
sg21
g22
sbag7
(g8
g9
NtRp258
(dp259
g12
g74
sg14
S'Arial'
p260
sg16
I700
sg17
g13
sg18
g13
sg19
S'/Library/Fonts/Arial Bold Italic.ttf'
p261
sg21
g22
sbag7
(g8
g9
NtRp262
(dp263
g12
g13
sg14
S'Tekton Pro'
p264
sg16
I700
sg17
g13
sg18
g13
sg19
S'/Library/Fonts/TektonPro-Bold.otf'
p265
sg21
g22
sbag7
(g8
g9
NtRp266
(dp267
g12
g74
sg14
S'Myriad Arabic'
p268
sg16
I400
sg17
g13
sg18
g13
sg19
S'/Library/Fonts/MyriadArabic-It.otf'
p269
sg21
g22
sbag7
(g8
g9
NtRp270
(dp271
g12
g74
sg14
S'Nueva Std'
p272
sg16
I400
sg17
g13
sg18
g13
sg19
S'/Library/Fonts/NuevaStd-Italic.otf'
p273
sg21
g22
sbag7
(g8
g9
NtRp274
(dp275
g12
g13
sg14
S'Ubuntu Mono derivative Powerline'
p276
sg16
I700
sg17
g13
sg18
g13
sg19
S'/Users/adrianhsu/Library/Fonts/Ubuntu Mono derivative Powerline Bold.ttf'
p277
sg21
g22
sbag7
(g8
g9
NtRp278
(dp279
g12
g13
sg14
S'Letter Gothic Std'
p280
sg16
I500
sg17
g13
sg18
g13
sg19
S'/Library/Fonts/LetterGothicStd.otf'
p281
sg21
g22
sbag7
(g8
g9
NtRp282
(dp283
g12
g13
sg14
S'STIXSizeFiveSym'
p284
sg16
I400
sg17
g13
sg18
g13
sg19
S'/Library/Fonts/STIXSizFiveSymReg.otf'
p285
sg21
g22
sbag7
(g8
g9
NtRp286
(dp287
g12
g13
sg14
S'Gurmukhi MT'
p288
sg16
I400
sg17
g13
sg18
g13
sg19
S'/Library/Fonts/Gurmukhi.ttf'
p289
sg21
g22
sbag7
(g8
g9
NtRp290
(dp291
g12
g13
sg14
S'.SF Compact Text'
p292
sg16
I400
sg17
g13
sg18
g13
sg19
S'/System/Library/Fonts/SFCompactText-Bold.otf'
p293
sg21
g22
sbag7
(g8
g9
NtRp294
(dp295
g12
g13
sg14
S'Fira Mono for Powerline'
p296
sg16
I700
sg17
g13
sg18
g13
sg19
S'/Users/adrianhsu/Library/Fonts/FuraMono-Bold Powerline.otf'
p297
sg21
g22
sbag7
(g8
g9
NtRp298
(dp299
g12
g25
sg14
S'Tekton Pro'
p300
sg16
I700
sg17
g13
sg18
g13
sg19
S'/Library/Fonts/TektonPro-BoldObl.otf'
p301
sg21
g22
sbag7
(g8
g9
NtRp302
(dp303
g12
g13
sg14
S'Adobe Myungjo Std'
p304
sg16
I400
sg17
g13
sg18
g13
sg19
S'/Library/Fonts/AdobeMyungjoStd-Medium.otf'
p305
sg21
g22
sbag7
(g8
g9
NtRp306
(dp307
g12
g74
sg14
S'Ubuntu Mono derivative Powerline'
p308
sg16
I400
sg17
g13
sg18
g13
sg19
S'/Users/adrianhsu/Library/Fonts/Ubuntu Mono derivative Powerline Italic.ttf'
p309
sg21
g22
sbag7
(g8
g9
NtRp310
(dp311
g12
g13
sg14
S'Adobe Gothic Std'
p312
sg16
I700
sg17
g13
sg18
g13
sg19
S'/Library/Fonts/AdobeGothicStd-Bold.otf'
p313
sg21
g22
sbag7
(g8
g9
NtRp314
(dp315
g12
g13
sg14
S'Myriad Pro'
p316
sg16
I700
sg17
g13
sg18
g13
sg19
S'/Library/Fonts/MyriadPro-Semibold.otf'
p317
sg21
g22
sbag7
(g8
g9
NtRp318
(dp319
g12
g74
sg14
S'Roboto Mono Light for Powerline'
p320
sg16
I200
sg17
g13
sg18
g13
sg19
S'/Users/adrianhsu/Library/Fonts/Roboto Mono Light Italic for Powerline.ttf'
p321
sg21
g22
sbag7
(g8
g9
NtRp322
(dp323
g12
g13
sg14
S'Kozuka Mincho Pr6N'
p324
sg16
I700
sg17
g13
sg18
g13
sg19
S'/Library/Fonts/KozMinPr6N-Bold.otf'
p325
sg21
g22
sbag7
(g8
g9
NtRp326
(dp327
g12
g74
sg14
S'Verdana'
p328
sg16
I700
sg17
g13
sg18
g13
sg19
S'/Library/Fonts/Verdana Bold Italic.ttf'
p329
sg21
g22
sbag7
(g8
g9
NtRp330
(dp331
g12
g13
sg14
S'STIXSizeOneSym'
p332
sg16
I400
sg17
g13
sg18
g13
sg19
S'/Library/Fonts/STIXSizOneSymReg.otf'
p333
sg21
g22
sbag7
(g8
g9
NtRp334
(dp335
g12
g13
sg14
S'.SF NS Display Condensed'
p336
sg16
I400
sg17
g13
sg18
g13
sg19
S'/System/Library/Fonts/SFNSDisplayCondensed-Black.otf'
p337
sg21
g22
sbag7
(g8
g9
NtRp338
(dp339
g12
g13
sg14
S'Kokonor'
p340
sg16
I400
sg17
g13
sg18
g13
sg19
S'/Library/Fonts/Kokonor.ttf'
p341
sg21
g22
sbag7
(g8
g9
NtRp342
(dp343
g12
g13
sg14
S'Meslo LG M for Powerline'
p344
sg16
I400
sg17
g13
sg18
g13
sg19
S'/Users/adrianhsu/Library/Fonts/Meslo LG M Regular for Powerline.otf'
p345
sg21
g22
sbag7
(g8
g9
NtRp346
(dp347
g12
g74
sg14
S'Adobe Devanagari'
p348
sg16
I700
sg17
g13
sg18
g13
sg19
S'/Library/Fonts/AdobeDevanagari-BoldItalic.otf'
p349
sg21
g22
sbag7
(g8
g9
NtRp350
(dp351
g12
g13
sg14
S'Apple Braille'
p352
sg16
I400
sg17
g13
sg18
g13
sg19
S'/System/Library/Fonts/Apple Braille.ttf'
p353
sg21
g22
sbag7
(g8
g9
NtRp354
(dp355
g12
g13
sg14
S'Source Sans Pro'
p356
sg16
I900
sg17
g13
sg18
g13
sg19
S'/Library/Fonts/SourceSansPro-Black.otf'
p357
sg21
g22
sbag7
(g8
g9
NtRp358
(dp359
g12
g13
sg14
S'Ubuntu Mono derivative Powerline'
p360
sg16
I400
sg17
g13
sg18
g13
sg19
S'/Users/adrianhsu/Library/Fonts/Ubuntu Mono derivative Powerline.ttf'
p361
sg21
g22
sbag7
(g8
g9
NtRp362
(dp363
g12
g13
sg14
S'DejaVu Sans Mono for Powerline'
p364
sg16
I700
sg17
g13
sg18
g13
sg19
S'/Users/adrianhsu/Library/Fonts/DejaVu Sans Mono Bold for Powerline.ttf'
p365
sg21
g22
sbag7
(g8
g9
NtRp366
(dp367
g12
g74
sg14
S'STIXNonUnicode'
p368
sg16
I400
sg17
g13
sg18
g13
sg19
S'/Library/Fonts/STIXNonUniIta.otf'
p369
sg21
g22
sbag7
(g8
g9
NtRp370
(dp371
g12
g13
sg14
S'Tekton Pro'
p372
sg16
I700
sg17
g13
sg18
g13
sg19
S'/Library/Fonts/TektonPro-BoldExt.otf'
p373
sg21
g22
sbag7
(g8
g9
NtRp374
(dp375
g12
g74
sg14
S'Chaparral Pro'
p376
sg16
I400
sg17
g13
sg18
g13
sg19
S'/Library/Fonts/ChaparralPro-Italic.otf'
p377
sg21
g22
sbag7
(g8
g9
NtRp378
(dp379
g12
g13
sg14
S'Comic Sans MS'
p380
sg16
I700
sg17
g13
sg18
g13
sg19
S'/Library/Fonts/Comic Sans MS Bold.ttf'
p381
sg21
g22
sbag7
(g8
g9
NtRp382
(dp383
g12
g74
sg14
S'Adobe Garamond Pro'
p384
sg16
I700
sg17
g13
sg18
g13
sg19
S'/Library/Fonts/AGaramondPro-BoldItalic.otf'
p385
sg21
g22
sbag7
(g8
g9
NtRp386
(dp387
g12
g13
sg14
S'Roboto Mono for Powerline'
p388
sg16
I400
sg17
g13
sg18
g13
sg19
S'/Users/adrianhsu/Library/Fonts/Roboto Mono for Powerline.ttf'
p389
sg21
g22
sbag7
(g8
g9
NtRp390
(dp391
g12
g13
sg14
S'STIXNonUnicode'
p392
sg16
I700
sg17
g13
sg18
g13
sg19
S'/Library/Fonts/STIXNonUniBol.otf'
p393
sg21
g22
sbag7
(g8
g9
NtRp394
(dp395
g12
g13
sg14
S'Webdings'
p396
sg16
I400
sg17
g13
sg18
g13
sg19
S'/Library/Fonts/Webdings.ttf'
p397
sg21
g22
sbag7
(g8
g9
NtRp398
(dp399
g12
g13
sg14
S'Apple Braille'
p400
sg16
I400
sg17
g13
sg18
g13
sg19
S'/System/Library/Fonts/Apple Braille Pinpoint 6 Dot.ttf'
p401
sg21
g22
sbag7
(g8
g9
NtRp402
(dp403
g12
g13
sg14
S'Symbol'
p404
sg16
I400
sg17
g13
sg18
g13
sg19
S'/System/Library/Fonts/Symbol.ttf'
p405
sg21
g22
sbag7
(g8
g9
NtRp406
(dp407
g12
g13
sg14
S'Kozuka Gothic Pro'
p408
sg16
I700
sg17
g13
sg18
g13
sg19
S'/Library/Fonts/KozGoPro-Heavy.otf'
p409
sg21
g22
sbag7
(g8
g9
NtRp410
(dp411
g12
g13
sg14
S'STIXIntegralsUpSm'
p412
sg16
I400
sg17
g13
sg18
g13
sg19
S'/Library/Fonts/STIXIntUpSmReg.otf'
p413
sg21
g22
sbag7
(g8
g9
NtRp414
(dp415
g12
g13
sg14
S'Droid Sans Mono Slashed for Powerline'
p416
sg16
I400
sg17
g13
sg18
g13
sg19
S'/Users/adrianhsu/Library/Fonts/Droid Sans Mono Slashed for Powerline.ttf'
p417
sg21
g22
sbag7
(g8
g9
NtRp418
(dp419
g12
g74
sg14
S'Minion Pro'
p420
sg16
I500
sg17
g13
sg18
g13
sg19
S'/Library/Fonts/MinionPro-MediumIt.otf'
p421
sg21
g22
sbag7
(g8
g9
NtRp422
(dp423
g12
g13
sg14
S'Kozuka Mincho Pro'
p424
sg16
I400
sg17
g13
sg18
g13
sg19
S'/Library/Fonts/KozMinPro-Regular.otf'
p425
sg21
g22
sbag7
(g8
g9
NtRp426
(dp427
g12
g74
sg14
S'Courier New'
p428
sg16
I400
sg17
g13
sg18
g13
sg19
S'/Library/Fonts/Courier New Italic.ttf'
p429
sg21
g22
sbag7
(g8
g9
NtRp430
(dp431
g12
g13
sg14
S'Arial Black'
p432
sg16
I900
sg17
g13
sg18
g13
sg19
S'/Library/Fonts/Arial Black.ttf'
p433
sg21
g22
sbag7
(g8
g9
NtRp434
(dp435
g12
g74
sg14
S'Myriad Pro'
p436
sg16
I700
sg17
g13
sg18
g13
sg19
S'/Library/Fonts/MyriadPro-SemiboldIt.otf'
p437
sg21
g22
sbag7
(g8
g9
NtRp438
(dp439
g12
g74
sg14
S'Ubuntu Mono derivative Powerline'
p440
sg16
I700
sg17
g13
sg18
g13
sg19
S'/Users/adrianhsu/Library/Fonts/Ubuntu Mono derivative Powerline Bold Italic.ttf'
p441
sg21
g22
sbag7
(g8
g9
NtRp442
(dp443
g12
g13
sg14
S'.SF Compact Display'
p444
sg16
I400
sg17
g13
sg18
g13
sg19
S'/System/Library/Fonts/SFCompactDisplay-Thin.otf'
p445
sg21
g22
sbag7
(g8
g9
NtRp446
(dp447
g12
g74
sg14
S'STIXGeneral'
p448
sg16
I400
sg17
g13
sg18
g13
sg19
S'/Library/Fonts/STIXGeneralItalic.otf'
p449
sg21
g22
sbag7
(g8
g9
NtRp450
(dp451
g12
g74
sg14
S'Myriad Pro'
p452
sg16
I700
sg17
g168
sg18
g13
sg19
S'/Library/Fonts/MyriadPro-BoldCondIt.otf'
p453
sg21
g22
sbag7
(g8
g9
NtRp454
(dp455
g12
g13
sg14
S'DejaVu Sans Mono for Powerline'
p456
sg16
I400
sg17
g13
sg18
g13
sg19
S'/Users/adrianhsu/Library/Fonts/DejaVu Sans Mono for Powerline.ttf'
p457
sg21
g22
sbag7
(g8
g9
NtRp458
(dp459
g12
g74
sg14
S'Hack'
p460
sg16
I700
sg17
g13
sg18
g13
sg19
S'/Users/adrianhsu/Library/Fonts/Hack-BoldItalic.ttf'
p461
sg21
g22
sbag7
(g8
g9
NtRp462
(dp463
g12
g13
sg14
S'STIXSizeFourSym'
p464
sg16
I400
sg17
g13
sg18
g13
sg19
S'/Library/Fonts/STIXSizFourSymReg.otf'
p465
sg21
g22
sbag7
(g8
g9
NtRp466
(dp467
g12
g13
sg14
S'Adobe Kaiti Std'
p468
sg16
I400
sg17
g13
sg18
g13
sg19
S'/Library/Fonts/AdobeKaitiStd-Regular.otf'
p469
sg21
g22
sbag7
(g8
g9
NtRp470
(dp471
g12
g13
sg14
S'Nueva Std'
p472
sg16
I400
sg17
g168
sg18
g13
sg19
S'/Library/Fonts/NuevaStd-Cond.otf'
p473
sg21
g22
sbag7
(g8
g9
NtRp474
(dp475
g12
g13
sg14
S'.SF NS Display Condensed'
p476
sg16
I400
sg17
g13
sg18
g13
sg19
S'/System/Library/Fonts/SFNSDisplayCondensed-Semibold.otf'
p477
sg21
g22
sbag7
(g8
g9
NtRp478
(dp479
g12
g13
sg14
S'Wingdings 3'
p480
sg16
I400
sg17
g13
sg18
g13
sg19
S'/Library/Fonts/Wingdings 3.ttf'
p481
sg21
g22
sbag7
(g8
g9
NtRp482
(dp483
g12
g13
sg14
S'Roboto Mono for Powerline'
p484
sg16
I700
sg17
g13
sg18
g13
sg19
S'/Users/adrianhsu/Library/Fonts/Roboto Mono Bold for Powerline.ttf'
p485
sg21
g22
sbag7
(g8
g9
NtRp486
(dp487
g12
g13
sg14
S'.SF Compact Text'
p488
sg16
I400
sg17
g13
sg18
g13
sg19
S'/System/Library/Fonts/SFCompactText-Regular.otf'
p489
sg21
g22
sbag7
(g8
g9
NtRp490
(dp491
g12
g74
sg14
S'Anonymous Pro for Powerline'
p492
sg16
I400
sg17
g13
sg18
g13
sg19
S'/Users/adrianhsu/Library/Fonts/Anonymice Powerline Italic.ttf'
p493
sg21
g22
sbag7
(g8
g9
NtRp494
(dp495
g12
g13
sg14
S'Kozuka Mincho Pr6N'
p496
sg16
I400
sg17
g13
sg18
g13
sg19
S'/Library/Fonts/KozMinPr6N-Light.otf'
p497
sg21
g22
sbag7
(g8
g9
NtRp498
(dp499
g12
g13
sg14
S'Meslo LG S DZ for Powerline'
p500
sg16
I400
sg17
g13
sg18
g13
sg19
S'/Users/adrianhsu/Library/Fonts/Meslo LG S DZ Regular for Powerline.otf'
p501
sg21
g22
sbag7
(g8
g9
NtRp502
(dp503
g12
g13
sg14
S'STIXSizeFourSym'
p504
sg16
I700
sg17
g13
sg18
g13
sg19
S'/Library/Fonts/STIXSizFourSymBol.otf'
p505
sg21
g22
sbag7
(g8
g9
NtRp506
(dp507
g12
g13
sg14
S'Kozuka Gothic Pr6N'
p508
sg16
I400
sg17
g13
sg18
g13
sg19
S'/Library/Fonts/KozGoPr6N-Medium.otf'
p509
sg21
g22
sbag7
(g8
g9
NtRp510
(dp511
g12
g13
sg14
S'Minion Pro'
p512
sg16
I500
sg17
g13
sg18
g13
sg19
S'/Library/Fonts/MinionPro-Medium.otf'
p513
sg21
g22
sbag7
(g8
g9
NtRp514
(dp515
g12
g13
sg14
S'Wingdings'
p516
sg16
I400
sg17
g13
sg18
g13
sg19
S'/Library/Fonts/Wingdings.ttf'
p517
sg21
g22
sbag7
(g8
g9
NtRp518
(dp519
g12
g13
sg14
S'Impact'
p520
sg16
I400
sg17
g13
sg18
g13
sg19
S'/Library/Fonts/Impact.ttf'
p521
sg21
g22
sbag7
(g8
g9
NtRp522
(dp523
g12
g13
sg14
S'.SF NS Text Condensed'
p524
sg16
I400
sg17
g13
sg18
g13
sg19
S'/System/Library/Fonts/SFNSTextCondensed-Light.otf'
p525
sg21
g22
sbag7
(g8
g9
NtRp526
(dp527
g12
g74
sg14
S'Georgia'
p528
sg16
I700
sg17
g13
sg18
g13
sg19
S'/Library/Fonts/Georgia Bold Italic.ttf'
p529
sg21
g22
sbag7
(g8
g9
NtRp530
(dp531
g12
g13
sg14
S'Tekton Pro'
p532
sg16
I700
sg17
g168
sg18
g13
sg19
S'/Library/Fonts/TektonPro-BoldCond.otf'
p533
sg21
g22
sbag7
(g8
g9
NtRp534
(dp535
g12
g13
sg14
S'.SF Compact Rounded'
p536
sg16
I400
sg17
g13
sg18
g13
sg19
S'/System/Library/Fonts/SFCompactRounded-Regular.otf'
p537
sg21
g22
sbag7
(g8
g9
NtRp538
(dp539
g12
g74
sg14
S'Myriad Arabic'
p540
sg16
I700
sg17
g13
sg18
g13
sg19
S'/Library/Fonts/MyriadArabic-BoldIt.otf'
p541
sg21
g22
sbag7
(g8
g9
NtRp542
(dp543
g12
g13
sg14
S'Hoefler Text'
p544
sg16
I400
sg17
g13
sg18
g13
sg19
S'/Library/Fonts/Hoefler Text Ornaments.ttf'
p545
sg21
g22
sbag7
(g8
g9
NtRp546
(dp547
g12
g13
sg14
S'.SF Compact Text'
p548
sg16
I400
sg17
g13
sg18
g13
sg19
S'/System/Library/Fonts/SFCompactText-BoldItalic.otf'
p549
sg21
g22
sbag7
(g8
g9
NtRp550
(dp551
g12
g74
sg14
S'Chaparral Pro'
p552
sg16
I200
sg17
g13
sg18
g13
sg19
S'/Library/Fonts/ChaparralPro-LightIt.otf'
p553
sg21
g22
sbag7
(g8
g9
NtRp554
(dp555
g12
g74
sg14
S'Adobe Arabic'
p556
sg16
I400
sg17
g13
sg18
g13
sg19
S'/Library/Fonts/AdobeArabic-Italic.otf'
p557
sg21
g22
sbag7
(g8
g9
NtRp558
(dp559
g12
g74
sg14
S'Source Sans Pro'
p560
sg16
I700
sg17
g13
sg18
g13
sg19
S'/Library/Fonts/SourceSansPro-BoldIt.otf'
p561
sg21
g22
sbag7
(g8
g9
NtRp562
(dp563
g12
g13
sg14
S'.SF Compact Rounded'
p564
sg16
I400
sg17
g13
sg18
g13
sg19
S'/System/Library/Fonts/SFCompactRounded-Medium.otf'
p565
sg21
g22
sbag7
(g8
g9
NtRp566
(dp567
g12
g13
sg14
S'Adobe Arabic'
p568
sg16
I700
sg17
g13
sg18
g13
sg19
S'/Library/Fonts/AdobeArabic-Bold.otf'
p569
sg21
g22
sbag7
(g8
g9
NtRp570
(dp571
g12
g13
sg14
S'Source Sans Pro'
p572
sg16
I700
sg17
g13
sg18
g13
sg19
S'/Library/Fonts/SourceSansPro-Bold.otf'
p573
sg21
g22
sbag7
(g8
g9
NtRp574
(dp575
g12
g13
sg14
S'Myriad Arabic'
p576
sg16
I400
sg17
g13
sg18
g13
sg19
S'/Library/Fonts/MyriadArabic-Regular.otf'
p577
sg21
g22
sbag7
(g8
g9
NtRp578
(dp579
g12
g13
sg14
S'Adobe Garamond Pro'
p580
sg16
I400
sg17
g13
sg18
g13
sg19
S'/Library/Fonts/AGaramondPro-Regular.otf'
p581
sg21
g22
sbag7
(g8
g9
NtRp582
(dp583
g12
g13
sg14
S'.SF NS Display Condensed'
p584
sg16
I400
sg17
g13
sg18
g13
sg19
S'/System/Library/Fonts/SFNSDisplayCondensed-Bold.otf'
p585
sg21
g22
sbag7
(g8
g9
NtRp586
(dp587
g12
g74
sg14
S'Letter Gothic Std'
p588
sg16
I700
sg17
g13
sg18
g13
sg19
S'/Library/Fonts/LetterGothicStd-BoldSlanted.otf'
p589
sg21
g22
sbag7
(g8
g9
NtRp590
(dp591
g12
g74
sg14
S'Roboto Mono Thin for Powerline'
p592
sg16
I400
sg17
g13
sg18
g13
sg19
S'/Users/adrianhsu/Library/Fonts/Roboto Mono Thin Italic for Powerline.ttf'
p593
sg21
g22
sbag7
(g8
g9
NtRp594
(dp595
g12
g13
sg14
S'.SF Compact Text'
p596
sg16
I400
sg17
g13
sg18
g13
sg19
S'/System/Library/Fonts/SFCompactText-Medium.otf'
p597
sg21
g22
sbag7
(g8
g9
NtRp598
(dp599
g12
g13
sg14
S'Zapf Dingbats'
p600
sg16
I400
sg17
g13
sg18
g13
sg19
S'/System/Library/Fonts/ZapfDingbats.ttf'
p601
sg21
g22
sbag7
(g8
g9
NtRp602
(dp603
g12
g13
sg14
S'.SF Compact Rounded'
p604
sg16
I400
sg17
g13
sg18
g13
sg19
S'/System/Library/Fonts/SFCompactRounded-Semibold.otf'
p605
sg21
g22
sbag7
(g8
g9
NtRp606
(dp607
g12
g13
sg14
S'System Font'
p608
sg16
I400
sg17
g13
sg18
g13
sg19
S'/System/Library/Fonts/SFNSTextItalic.ttf'
p609
sg21
g22
sbag7
(g8
g9
NtRp610
(dp611
g12
g13
sg14
S'Adobe Garamond Pro'
p612
sg16
I700
sg17
g13
sg18
g13
sg19
S'/Library/Fonts/AGaramondPro-Bold.otf'
p613
sg21
g22
sbag7
(g8
g9
NtRp614
(dp615
g12
g13
sg14
S'Luminari'
p616
sg16
I400
sg17
g13
sg18
g13
sg19
S'/Library/Fonts/Luminari.ttf'
p617
sg21
g22
sbag7
(g8
g9
NtRp618
(dp619
g12
g13
sg14
S'Myriad Pro'
p620
sg16
I400
sg17
g13
sg18
g13
sg19
S'/Library/Fonts/MyriadPro-Regular.otf'
p621
sg21
g22
sbag7
(g8
g9
NtRp622
(dp623
g12
g13
sg14
S'Myriad Pro'
p624
sg16
I400
sg17
g168
sg18
g13
sg19
S'/Library/Fonts/MyriadPro-Cond.otf'
p625
sg21
g22
sbag7
(g8
g9
NtRp626
(dp627
g12
g74
sg14
S'Arimo for Powerline'
p628
sg16
I400
sg17
g13
sg18
g13
sg19
S'/Users/adrianhsu/Library/Fonts/Arimo Italic for Powerline.ttf'
p629
sg21
g22
sbag7
(g8
g9
NtRp630
(dp631
g12
g74
sg14
S'Trebuchet MS'
p632
sg16
I700
sg17
g13
sg18
g13
sg19
S'/Library/Fonts/Trebuchet MS Bold Italic.ttf'
p633
sg21
g22
sbag7
(g8
g9
NtRp634
(dp635
g12
g13
sg14
S'STIXIntegralsSm'
p636
sg16
I700
sg17
g13
sg18
g13
sg19
S'/Library/Fonts/STIXIntSmBol.otf'
p637
sg21
g22
sbag7
(g8
g9
NtRp638
(dp639
g12
g13
sg14
S'Adobe Ming Std'
p640
sg16
I400
sg17
g13
sg18
g13
sg19
S'/Library/Fonts/AdobeMingStd-Light.otf'
p641
sg21
g22
sbag7
(g8
g9
NtRp642
(dp643
g12
g13
sg14
S'Anonymous Pro for Powerline'
p644
sg16
I700
sg17
g13
sg18
g13
sg19
S'/Users/adrianhsu/Library/Fonts/Anonymice Powerline Bold.ttf'
p645
sg21
g22
sbag7
(g8
g9
NtRp646
(dp647
g12
g13
sg14
S'Kozuka Gothic Pro'
p648
sg16
I400
sg17
g13
sg18
g13
sg19
S'/Library/Fonts/KozGoPro-ExtraLight.otf'
p649
sg21
g22
sbag7
(g8
g9
NtRp650
(dp651
g12
g74
sg14
S'Chaparral Pro'
p652
sg16
I700
sg17
g13
sg18
g13
sg19
S'/Library/Fonts/ChaparralPro-BoldIt.otf'
p653
sg21
g22
sbag7
(g8
g9
NtRp654
(dp655
g12
g13
sg14
S'Adobe Song Std'
p656
sg16
I400
sg17
g13
sg18
g13
sg19
S'/Library/Fonts/AdobeSongStd-Light.otf'
p657
sg21
g22
sbag7
(g8
g9
NtRp658
(dp659
g12
g13
sg14
S'.SF Compact Text'
p660
sg16
I400
sg17
g13
sg18
g13
sg19
S'/System/Library/Fonts/SFCompactText-Semibold.otf'
p661
sg21
g22
sbag7
(g8
g9
NtRp662
(dp663
g12
g74
sg14
S'Adobe Hebrew'
p664
sg16
I700
sg17
g13
sg18
g13
sg19
S'/Library/Fonts/AdobeHebrew-BoldItalic.otf'
p665
sg21
g22
sbag7
(g8
g9
NtRp666
(dp667
g12
g13
sg14
S'Verdana'
p668
sg16
I400
sg17
g13
sg18
g13
sg19
S'/Library/Fonts/Verdana.ttf'
p669
sg21
g22
sbag7
(g8
g9
NtRp670
(dp671
g12
g13
sg14
S'Farisi'
p672
sg16
I400
sg17
g13
sg18
g13
sg19
S'/Library/Fonts/Farisi.ttf'
p673
sg21
g22
sbag7
(g8
g9
NtRp674
(dp675
g12
g13
sg14
S'System Font'
p676
sg16
I400
sg17
g13
sg18
g13
sg19
S'/System/Library/Fonts/SFNSText.ttf'
p677
sg21
g22
sbag7
(g8
g9
NtRp678
(dp679
g12
g13
sg14
S'STIXNonUnicode'
p680
sg16
I400
sg17
g13
sg18
g13
sg19
S'/Library/Fonts/STIXNonUni.otf'
p681
sg21
g22
sbag7
(g8
g9
NtRp682
(dp683
g12
g13
sg14
S'Bodoni 72 Smallcaps'
p684
sg16
I400
sg17
g13
sg18
g13
sg19
S'/Library/Fonts/Bodoni 72 Smallcaps Book.ttf'
p685
sg21
g22
sbag7
(g8
g9
NtRp686
(dp687
g12
g13
sg14
S'Hack'
p688
sg16
I400
sg17
g13
sg18
g13
sg19
S'/Users/adrianhsu/Library/Fonts/Hack-Regular.ttf'
p689
sg21
g22
sbag7
(g8
g9
NtRp690
(dp691
g12
g74
sg14
S'Arial'
p692
sg16
I400
sg17
g13
sg18
g13
sg19
S'/Library/Fonts/Arial Italic.ttf'
p693
sg21
g22
sbag7
(g8
g9
NtRp694
(dp695
g12
g13
sg14
S'Trebuchet MS'
p696
sg16
I700
sg17
g13
sg18
g13
sg19
S'/Library/Fonts/Trebuchet MS Bold.ttf'
p697
sg21
g22
sbag7
(g8
g9
NtRp698
(dp699
g12
g74
sg14
S'Adobe Caslon Pro'
p700
sg16
I400
sg17
g13
sg18
g13
sg19
S'/Library/Fonts/ACaslonPro-Italic.otf'
p701
sg21
g22
sbag7
(g8
g9
NtRp702
(dp703
g12
g74
sg14
S'Tinos for Powerline'
p704
sg16
I400
sg17
g13
sg18
g13
sg19
S'/Users/adrianhsu/Library/Fonts/Tinos Italic for Powerline.ttf'
p705
sg21
g22
sbag7
(g8
g9
NtRp706
(dp707
g12
g74
sg14
S'STIXNonUnicode'
p708
sg16
I700
sg17
g13
sg18
g13
sg19
S'/Library/Fonts/STIXNonUniBolIta.otf'
p709
sg21
g22
sbag7
(g8
g9
NtRp710
(dp711
g12
g13
sg14
S'Adobe Devanagari'
p712
sg16
I700
sg17
g13
sg18
g13
sg19
S'/Library/Fonts/AdobeDevanagari-Bold.otf'
p713
sg21
g22
sbag7
(g8
g9
NtRp714
(dp715
g12
g13
sg14
S'Brush Script Std'
p716
sg16
I500
sg17
g13
sg18
g13
sg19
S'/Library/Fonts/BrushScriptStd.otf'
p717
sg21
g22
sbag7
(g8
g9
NtRp718
(dp719
g12
g13
sg14
S'Trajan Pro 3'
p720
sg16
I400
sg17
g13
sg18
g13
sg19
S'/Library/Fonts/TrajanPro3-Regular.otf'
p721
sg21
g22
sbag7
(g8
g9
NtRp722
(dp723
g12
g13
sg14
S'Meslo LG S for Powerline'
p724
sg16
I400
sg17
g13
sg18
g13
sg19
S'/Users/adrianhsu/Library/Fonts/Meslo LG S Regular for Powerline.otf'
p725
sg21
g22
sbag7
(g8
g9
NtRp726
(dp727
g12
g74
sg14
S'Source Sans Pro'
p728
sg16
I400
sg17
g13
sg18
g13
sg19
S'/Library/Fonts/SourceSansPro-It.otf'
p729
sg21
g22
sbag7
(g8
g9
NtRp730
(dp731
g12
g13
sg14
S'STIXIntegralsSm'
p732
sg16
I400
sg17
g13
sg18
g13
sg19
S'/Library/Fonts/STIXIntSmReg.otf'
p733
sg21
g22
sbag7
(g8
g9
NtRp734
(dp735
g12
g13
sg14
S'Myriad Pro'
p736
sg16
I700
sg17
g168
sg18
g13
sg19
S'/Library/Fonts/MyriadPro-BoldCond.otf'
p737
sg21
g22
sbag7
(g8
g9
NtRp738
(dp739
g12
g74
sg14
S'Verdana'
p740
sg16
I400
sg17
g13
sg18
g13
sg19
S'/Library/Fonts/Verdana Italic.ttf'
p741
sg21
g22
sbag7
(g8
g9
NtRp742
(dp743
g12
g13
sg14
S'Chalkduster'
p744
sg16
I400
sg17
g13
sg18
g13
sg19
S'/Library/Fonts/Chalkduster.ttf'
p745
sg21
g22
sbag7
(g8
g9
NtRp746
(dp747
g12
g74
sg14
S'Source Sans Pro'
p748
sg16
I200
sg17
g13
sg18
g13
sg19
S'/Library/Fonts/SourceSansPro-ExtraLightIt.otf'
p749
sg21
g22
sbag7
(g8
g9
NtRp750
(dp751
g12
g74
sg14
S'Minion Pro'
p752
sg16
I700
sg17
g13
sg18
g13
sg19
S'/Library/Fonts/MinionPro-BoldIt.otf'
p753
sg21
g22
sbag7
(g8
g9
NtRp754
(dp755
g12
g13
sg14
S'Adobe Caslon Pro'
p756
sg16
I400
sg17
g13
sg18
g13
sg19
S'/Library/Fonts/ACaslonPro-Regular.otf'
p757
sg21
g22
sbag7
(g8
g9
NtRp758
(dp759
g12
g13
sg14
S'STIXIntegralsUp'
p760
sg16
I400
sg17
g13
sg18
g13
sg19
S'/Library/Fonts/STIXIntUpReg.otf'
p761
sg21
g22
sbag7
(g8
g9
NtRp762
(dp763
g12
g74
sg14
S'Liberation Mono for Powerline'
p764
sg16
I700
sg17
g13
sg18
g13
sg19
S'/Users/adrianhsu/Library/Fonts/Literation Mono Powerline Bold Italic.ttf'
p765
sg21
g22
sbag7
(g8
g9
NtRp766
(dp767
g12
g13
sg14
S'Source Code Pro for Powerline'
p768
sg16
I200
sg17
g13
sg18
g13
sg19
S'/Users/adrianhsu/Library/Fonts/Sauce Code Powerline ExtraLight.otf'
p769
sg21
g22
sbag7
(g8
g9
NtRp770
(dp771
g12
g13
sg14
S'.SF Compact Rounded'
p772
sg16
I400
sg17
g13
sg18
g13
sg19
S'/System/Library/Fonts/SFCompactRounded-Black.otf'
p773
sg21
g22
sbag7
(g8
g9
NtRp774
(dp775
g12
g74
sg14
S'Adobe Hebrew'
p776
sg16
I400
sg17
g13
sg18
g13
sg19
S'/Library/Fonts/AdobeHebrew-Italic.otf'
p777
sg21
g22
sbag7
(g8
g9
NtRp778
(dp779
g12
g13
sg14
S'Ayuthaya'
p780
sg16
I400
sg17
g13
sg18
g13
sg19
S'/Library/Fonts/Ayuthaya.ttf'
p781
sg21
g22
sbag7
(g8
g9
NtRp782
(dp783
g12
g13
sg14
S'.SF Compact Rounded'
p784
sg16
I400
sg17
g13
sg18
g13
sg19
S'/System/Library/Fonts/SFCompactRounded-Bold.otf'
p785
sg21
g22
sbag7
(g8
g9
NtRp786
(dp787
g12
g13
sg14
S'Orator Std'
p788
sg16
I500
sg17
g13
sg18
g13
sg19
S'/Library/Fonts/OratorStd.otf'
p789
sg21
g22
sbag7
(g8
g9
NtRp790
(dp791
g12
g13
sg14
S'Blackoak Std'
p792
sg16
I900
sg17
g13
sg18
g13
sg19
S'/Library/Fonts/BlackoakStd.otf'
p793
sg21
g22
sbag7
(g8
g9
NtRp794
(dp795
g12
g13
sg14
S'Minion Pro'
p796
sg16
I700
sg17
g13
sg18
g13
sg19
S'/Library/Fonts/MinionPro-Bold.otf'
p797
sg21
g22
sbag7
(g8
g9
NtRp798
(dp799
g12
g74
sg14
S'Minion Pro'
p800
sg16
I700
sg17
g168
sg18
g13
sg19
S'/Library/Fonts/MinionPro-BoldCnIt.otf'
p801
sg21
g22
sbag7
(g8
g9
NtRp802
(dp803
g12
g13
sg14
S'Andale Mono'
p804
sg16
I400
sg17
g13
sg18
g13
sg19
S'/Library/Fonts/Andale Mono.ttf'
p805
sg21
g22
sbag7
(g8
g9
NtRp806
(dp807
g12
g13
sg14
S'Letter Gothic Std'
p808
sg16
I700
sg17
g13
sg18
g13
sg19
S'/Library/Fonts/LetterGothicStd-Bold.otf'
p809
sg21
g22
sbag7
(g8
g9
NtRp810
(dp811
g12
g13
sg14
S'Silom'
p812
sg16
I400
sg17
g13
sg18
g13
sg19
S'/Library/Fonts/Silom.ttf'
p813
sg21
g22
sbag7
(g8
g9
NtRp814
(dp815
g12
g13
sg14
S'Tahoma'
p816
sg16
I700
sg17
g13
sg18
g13
sg19
S'/Library/Fonts/Tahoma Bold.ttf'
p817
sg21
g22
sbag7
(g8
g9
NtRp818
(dp819
g12
g13
sg14
S'Adobe Fan Heiti Std'
p820
sg16
I700
sg17
g13
sg18
g13
sg19
S'/Library/Fonts/AdobeFanHeitiStd-Bold.otf'
p821
sg21
g22
sbag7
(g8
g9
NtRp822
(dp823
g12
g13
sg14
S'Kozuka Gothic Pr6N'
p824
sg16
I700
sg17
g13
sg18
g13
sg19
S'/Library/Fonts/KozGoPr6N-Heavy.otf'
p825
sg21
g22
sbag7
(g8
g9
NtRp826
(dp827
g12
g13
sg14
S'Lao Sangam MN'
p828
sg16
I400
sg17
g13
sg18
g13
sg19
S'/Library/Fonts/Lao Sangam MN.ttf'
p829
sg21
g22
sbag7
(g8
g9
NtRp830
(dp831
g12
g13
sg14
S'Bodoni Ornaments'
p832
sg16
I400
sg17
g13
sg18
g13
sg19
S'/Library/Fonts/Bodoni Ornaments.ttf'
p833
sg21
g22
sbag7
(g8
g9
NtRp834
(dp835
g12
g13
sg14
S'Hack'
p836
sg16
I700
sg17
g13
sg18
g13
sg19
S'/Users/adrianhsu/Library/Fonts/Hack-Bold.ttf'
p837
sg21
g22
sbag7
(g8
g9
NtRp838
(dp839
g12
g74
sg14
S'Adobe Caslon Pro'
p840
sg16
I700
sg17
g13
sg18
g13
sg19
S'/Library/Fonts/ACaslonPro-BoldItalic.otf'
p841
sg21
g22
sbag7
(g8
g9
NtRp842
(dp843
g12
g13
sg14
S'Inconsolata for Powerline'
p844
sg16
I400
sg17
g13
sg18
g13
sg19
S'/Users/adrianhsu/Library/Fonts/Inconsolata for Powerline.otf'
p845
sg21
g22
sbag7
(g8
g9
NtRp846
(dp847
g12
g74
sg14
S'Adobe Caslon Pro'
p848
sg16
I700
sg17
g13
sg18
g13
sg19
S'/Library/Fonts/ACaslonPro-SemiboldItalic.otf'
p849
sg21
g22
sbag7
(g8
g9
NtRp850
(dp851
g12
g13
sg14
S'Big Caslon'
p852
sg16
I500
sg17
g13
sg18
g13
sg19
S'/Library/Fonts/BigCaslon.ttf'
p853
sg21
g22
sbag7
(g8
g9
NtRp854
(dp855
g12
g13
sg14
S'Source Code Pro for Powerline'
p856
sg16
I400
sg17
g13
sg18
g13
sg19
S'/Users/adrianhsu/Library/Fonts/Sauce Code Powerline Regular.otf'
p857
sg21
g22
sbag7
(g8
g9
NtRp858
(dp859
g12
g13
sg14
S'Source Code Pro for Powerline'
p860
sg16
I700
sg17
g13
sg18
g13
sg19
S'/Users/adrianhsu/Library/Fonts/Sauce Code Powerline Bold.otf'
p861
sg21
g22
sbag7
(g8
g9
NtRp862
(dp863
g12
g13
sg14
S'Adobe Naskh'
p864
sg16
I500
sg17
g13
sg18
g13
sg19
S'/Library/Fonts/AdobeNaskh-Medium.otf'
p865
sg21
g22
sbag7
(g8
g9
NtRp866
(dp867
g12
g74
sg14
S'Source Sans Pro'
p868
sg16
I700
sg17
g13
sg18
g13
sg19
S'/Library/Fonts/SourceSansPro-SemiboldIt.otf'
p869
sg21
g22
sbag7
(g8
g9
NtRp870
(dp871
g12
g13
sg14
S'OCR A Std'
p872
sg16
I400
sg17
g13
sg18
g13
sg19
S'/Library/Fonts/OCRAStd.otf'
p873
sg21
g22
sbag7
(g8
g9
NtRp874
(dp875
g12
g13
sg14
S'Verdana'
p876
sg16
I700
sg17
g13
sg18
g13
sg19
S'/Library/Fonts/Verdana Bold.ttf'
p877
sg21
g22
sbag7
(g8
g9
NtRp878
(dp879
g12
g13
sg14
S'STIXSizeThreeSym'
p880
sg16
I400
sg17
g13
sg18
g13
sg19
S'/Library/Fonts/STIXSizThreeSymReg.otf'
p881
sg21
g22
sbag7
(g8
g9
NtRp882
(dp883
g12
g13
sg14
S'Meslo LG M DZ for Powerline'
p884
sg16
I400
sg17
g13
sg18
g13
sg19
S'/Users/adrianhsu/Library/Fonts/Meslo LG M DZ Regular for Powerline.otf'
p885
sg21
g22
sbag7
(g8
g9
NtRp886
(dp887
g12
g13
sg14
S'DIN Condensed'
p888
sg16
I700
sg17
g168
sg18
g13
sg19
S'/Library/Fonts/DIN Condensed Bold.ttf'
p889
sg21
g22
sbag7
(g8
g9
NtRp890
(dp891
g12
g13
sg14
S'Arial'
p892
sg16
I400
sg17
g13
sg18
g13
sg19
S'/Library/Fonts/Arial.ttf'
p893
sg21
g22
sbag7
(g8
g9
NtRp894
(dp895
g12
g13
sg14
S'AppleGothic'
p896
sg16
I400
sg17
g13
sg18
g13
sg19
S'/Library/Fonts/AppleGothic.ttf'
p897
sg21
g22
sbag7
(g8
g9
NtRp898
(dp899
g12
g74
sg14
S'Roboto Mono for Powerline'
p900
sg16
I400
sg17
g13
sg18
g13
sg19
S'/Users/adrianhsu/Library/Fonts/Roboto Mono Italic for Powerline.ttf'
p901
sg21
g22
sbag7
(g8
g9
NtRp902
(dp903
g12
g13
sg14
S'Arial Narrow'
p904
sg16
I400
sg17
g168
sg18
g13
sg19
S'/Library/Fonts/Arial Narrow.ttf'
p905
sg21
g22
sbag7
(g8
g9
NtRp906
(dp907
g12
g13
sg14
S'.SF Compact Display'
p908
sg16
I400
sg17
g13
sg18
g13
sg19
S'/System/Library/Fonts/SFCompactDisplay-Medium.otf'
p909
sg21
g22
sbag7
(g8
g9
NtRp910
(dp911
g12
g13
sg14
S'.SF Compact Rounded'
p912
sg16
I400
sg17
g13
sg18
g13
sg19
S'/System/Library/Fonts/SFCompactRounded-Heavy.otf'
p913
sg21
g22
sbag7
(g8
g9
NtRp914
(dp915
g12
g13
sg14
S'Source Sans Pro'
p916
sg16
I700
sg17
g13
sg18
g13
sg19
S'/Library/Fonts/SourceSansPro-Semibold.otf'
p917
sg21
g22
sbag7
(g8
g9
NtRp918
(dp919
g12
g13
sg14
S'.SF Compact Text'
p920
sg16
I400
sg17
g13
sg18
g13
sg19
S'/System/Library/Fonts/SFCompactText-RegularItalic.otf'
p921
sg21
g22
sbag7
(g8
g9
NtRp922
(dp923
g12
g74
sg14
S'Liberation Mono for Powerline'
p924
sg16
I400
sg17
g13
sg18
g13
sg19
S'/Users/adrianhsu/Library/Fonts/Literation Mono Powerline Italic.ttf'
p925
sg21
g22
sbag7
(g8
g9
NtRp926
(dp927
g12
g74
sg14
S'Roboto Mono Medium for Powerline'
p928
sg16
I500
sg17
g13
sg18
g13
sg19
S'/Users/adrianhsu/Library/Fonts/Roboto Mono Medium Italic for Powerline.ttf'
p929
sg21
g22
sbag7
(g8
g9
NtRp930
(dp931
g12
g13
sg14
S'Source Sans Pro'
p932
sg16
I200
sg17
g13
sg18
g13
sg19
S'/Library/Fonts/SourceSansPro-Light.otf'
p933
sg21
g22
sbag7
(g8
g9
NtRp934
(dp935
g12
g13
sg14
S'Cousine for Powerline'
p936
sg16
I700
sg17
g13
sg18
g13
sg19
S'/Users/adrianhsu/Library/Fonts/Cousine Bold for Powerline.ttf'
p937
sg21
g22
sbag7
(g8
g9
NtRp938
(dp939
g12
g13
sg14
S'Arial Narrow'
p940
sg16
I700
sg17
g168
sg18
g13
sg19
S'/Library/Fonts/Arial Narrow Bold.ttf'
p941
sg21
g22
sbag7
(g8
g9
NtRp942
(dp943
g12
g74
sg14
S'Times New Roman'
p944
sg16
I500
sg17
g13
sg18
g13
sg19
S'/Library/Fonts/Times New Roman Italic.ttf'
p945
sg21
g22
sbag7
(g8
g9
NtRp946
(dp947
g12
g13
sg14
S'.SF NS Display Condensed'
p948
sg16
I400
sg17
g13
sg18
g13
sg19
S'/System/Library/Fonts/SFNSDisplayCondensed-Light.otf'
p949
sg21
g22
sbag7
(g8
g9
NtRp950
(dp951
g12
g13
sg14
S'Georgia'
p952
sg16
I400
sg17
g13
sg18
g13
sg19
S'/Library/Fonts/Georgia.ttf'
p953
sg21
g22
sbag7
(g8
g9
NtRp954
(dp955
g12
g13
sg14
S'Charlemagne Std'
p956
sg16
I700
sg17
g13
sg18
g13
sg19
S'/Library/Fonts/CharlemagneStd-Bold.otf'
p957
sg21
g22
sbag7
(g8
g9
NtRp958
(dp959
g12
g13
sg14
S'Prestige Elite Std'
p960
sg16
I700
sg17
g13
sg18
g13
sg19
S'/Library/Fonts/PrestigeEliteStd-Bd.otf'
p961
sg21
g22
sbag7
(g8
g9
NtRp962
(dp963
g12
g13
sg14
S'Minion Pro'
p964
sg16
I400
sg17
g13
sg18
g13
sg19
S'/Library/Fonts/MinionPro-Regular.otf'
p965
sg21
g22
sbag7
(g8
g9
NtRp966
(dp967
g12
g13
sg14
S'Liberation Mono for Powerline'
p968
sg16
I400
sg17
g13
sg18
g13
sg19
S'/Users/adrianhsu/Library/Fonts/Literation Mono Powerline.ttf'
p969
sg21
g22
sbag7
(g8
g9
NtRp970
(dp971
g12
g74
sg14
S'Times New Roman'
p972
sg16
I700
sg17
g13
sg18
g13
sg19
S'/Library/Fonts/Times New Roman Bold Italic.ttf'
p973
sg21
g22
sbag7
(g8
g9
NtRp974
(dp975
g12
g74
sg14
S'Arial Narrow'
p976
sg16
I400
sg17
g168
sg18
g13
sg19
S'/Library/Fonts/Arial Narrow Italic.ttf'
p977
sg21
g22
sbag7
(g8
g9
NtRp978
(dp979
g12
g13
sg14
S'.SF Compact Display'
p980
sg16
I400
sg17
g13
sg18
g13
sg19
S'/System/Library/Fonts/SFCompactDisplay-Regular.otf'
p981
sg21
g22
sbag7
(g8
g9
NtRp982
(dp983
g12
g13
sg14
S'.SF NS Display Condensed'
p984
sg16
I400
sg17
g13
sg18
g13
sg19
S'/System/Library/Fonts/SFNSDisplayCondensed-Ultralight.otf'
p985
sg21
g22
sbag7
(g8
g9
NtRp986
(dp987
g12
g13
sg14
S'Plantagenet Cherokee'
p988
sg16
I400
sg17
g13
sg18
g13
sg19
S'/Library/Fonts/PlantagenetCherokee.ttf'
p989
sg21
g22
sbag7
(g8
g9
NtRp990
(dp991
g12
g13
sg14
S'STIXVariants'
p992
sg16
I400
sg17
g13
sg18
g13
sg19
S'/Library/Fonts/STIXVar.otf'
p993
sg21
g22
sbag7
(g8
g9
NtRp994
(dp995
g12
g13
sg14
S'Mishafi'
p996
sg16
I400
sg17
g13
sg18
g13
sg19
S'/Library/Fonts/Mishafi.ttf'
p997
sg21
g22
sbag7
(g8
g9
NtRp998
(dp999
g12
g13
sg14
S'Tinos for Powerline'
p1000
sg16
I400
sg17
g13
sg18
g13
sg19
S'/Users/adrianhsu/Library/Fonts/Tinos for Powerline.ttf'
p1001
sg21
g22
sbag7
(g8
g9
NtRp1002
(dp1003
g12
g13
sg14
S'Birch Std'
p1004
sg16
I400
sg17
g13
sg18
g13
sg19
S'/Library/Fonts/BirchStd.otf'
p1005
sg21
g22
sbag7
(g8
g9
NtRp1006
(dp1007
g12
g13
sg14
S'Skia'
p1008
sg16
I400
sg17
g13
sg18
g13
sg19
S'/Library/Fonts/Skia.ttf'
p1009
sg21
g22
sbag7
(g8
g9
NtRp1010
(dp1011
g12
g13
sg14
S'Fira Mono for Powerline'
p1012
sg16
I400
sg17
g13
sg18
g13
sg19
S'/Users/adrianhsu/Library/Fonts/FuraMono-Regular Powerline.otf'
p1013
sg21
g22
sbag7
(g8
g9
NtRp1014
(dp1015
g12
g13
sg14
S'Kozuka Gothic Pr6N'
p1016
sg16
I700
sg17
g13
sg18
g13
sg19
S'/Library/Fonts/KozGoPr6N-Bold.otf'
p1017
sg21
g22
sbag7
(g8
g9
NtRp1018
(dp1019
g12
g13
sg14
S'Adobe Arabic'
p1020
sg16
I400
sg17
g13
sg18
g13
sg19
S'/Library/Fonts/AdobeArabic-Regular.otf'
p1021
sg21
g22
sbag7
(g8
g9
NtRp1022
(dp1023
g12
g13
sg14
S'.SF Compact Display'
p1024
sg16
I400
sg17
g13
sg18
g13
sg19
S'/System/Library/Fonts/SFCompactDisplay-Light.otf'
p1025
sg21
g22
sbag7
(g8
g9
NtRp1026
(dp1027
g12
g13
sg14
S'Kozuka Mincho Pro'
p1028
sg16
I700
sg17
g13
sg18
g13
sg19
S'/Library/Fonts/KozMinPro-Heavy.otf'
p1029
sg21
g22
sbag7
(g8
g9
NtRp1030
(dp1031
g12
g13
sg14
S'Lithos Pro'
p1032
sg16
I400
sg17
g13
sg18
g13
sg19
S'/Library/Fonts/LithosPro-Regular.otf'
p1033
sg21
g22
sbag7
(g8
g9
NtRp1034
(dp1035
g12
g13
sg14
S'Kozuka Mincho Pro'
p1036
sg16
I700
sg17
g13
sg18
g13
sg19
S'/Library/Fonts/KozMinPro-Bold.otf'
p1037
sg21
g22
sbag7
(g8
g9
NtRp1038
(dp1039
g12
g13
sg14
S'Nueva Std'
p1040
sg16
I700
sg17
g168
sg18
g13
sg19
S'/Library/Fonts/NuevaStd-BoldCond.otf'
p1041
sg21
g22
sbag7
(g8
g9
NtRp1042
(dp1043
g12
g74
sg14
S'Courier New'
p1044
sg16
I700
sg17
g13
sg18
g13
sg19
S'/Library/Fonts/Courier New Bold Italic.ttf'
p1045
sg21
g22
sbag7
(g8
g9
NtRp1046
(dp1047
g12
g13
sg14
S'Arial Rounded MT Bold'
p1048
sg16
I700
sg17
g13
sg18
g13
sg19
S'/Library/Fonts/Arial Rounded Bold.ttf'
p1049
sg21
g22
sbag7
(g8
g9
NtRp1050
(dp1051
g12
g74
sg14
S'Adobe Arabic'
p1052
sg16
I700
sg17
g13
sg18
g13
sg19
S'/Library/Fonts/AdobeArabic-BoldItalic.otf'
p1053
sg21
g22
sbag7
(g8
g9
NtRp1054
(dp1055
g12
g13
sg14
S'.SF NS Display Condensed'
p1056
sg16
I400
sg17
g13
sg18
g13
sg19
S'/System/Library/Fonts/SFNSDisplayCondensed-Thin.otf'
p1057
sg21
g22
sbag7
(g8
g9
NtRp1058
(dp1059
g12
g13
sg14
S'Kozuka Gothic Pr6N'
p1060
sg16
I400
sg17
g13
sg18
g13
sg19
S'/Library/Fonts/KozGoPr6N-Light.otf'
p1061
sg21
g22
sbag7
(g8
g9
NtRp1062
(dp1063
g12
g13
sg14
S'Meslo LG L for Powerline'
p1064
sg16
I400
sg17
g13
sg18
g13
sg19
S'/Users/adrianhsu/Library/Fonts/Meslo LG L Regular for Powerline.otf'
p1065
sg21
g22
sbag7
(g8
g9
NtRp1066
(dp1067
g12
g13
sg14
S'Kozuka Mincho Pro'
p1068
sg16
I400
sg17
g13
sg18
g13
sg19
S'/Library/Fonts/KozMinPro-Medium.otf'
p1069
sg21
g22
sbag7
(g8
g9
NtRp1070
(dp1071
g12
g13
sg14
S'.SF Compact Text'
p1072
sg16
I400
sg17
g13
sg18
g13
sg19
S'/System/Library/Fonts/SFCompactText-Heavy.otf'
p1073
sg21
g22
sbag7
(g8
g9
NtRp1074
(dp1075
g12
g13
sg14
S'InaiMathi'
p1076
sg16
I400
sg17
g13
sg18
g13
sg19
S'/Library/Fonts/InaiMathi.ttf'
p1077
sg21
g22
sbag7
(g8
g9
NtRp1078
(dp1079
g12
g13
sg14
S'Kozuka Gothic Pro'
p1080
sg16
I400
sg17
g13
sg18
g13
sg19
S'/Library/Fonts/KozGoPro-Light.otf'
p1081
sg21
g22
sbag7
(g8
g9
NtRp1082
(dp1083
g12
g13
sg14
S'.SF Compact Text'
p1084
sg16
I400
sg17
g13
sg18
g13
sg19
S'/System/Library/Fonts/SFCompactText-MediumItalic.otf'
p1085
sg21
g22
sbag7
(g8
g9
NtRp1086
(dp1087
g12
g13
sg14
S'Minion Pro'
p1088
sg16
I700
sg17
g13
sg18
g13
sg19
S'/Library/Fonts/MinionPro-Semibold.otf'
p1089
sg21
g22
sbag7
(g8
g9
NtRp1090
(dp1091
g12
g13
sg14
S'.SF NS Text Condensed'
p1092
sg16
I400
sg17
g13
sg18
g13
sg19
S'/System/Library/Fonts/SFNSTextCondensed-Semibold.otf'
p1093
sg21
g22
sbag7
(g8
g9
NtRp1094
(dp1095
g12
g13
sg14
S'Roboto Mono Thin for Powerline'
p1096
sg16
I400
sg17
g13
sg18
g13
sg19
S'/Users/adrianhsu/Library/Fonts/Roboto Mono Thin for Powerline.ttf'
p1097
sg21
g22
sbag7
(g8
g9
NtRp1098
(dp1099
g12
g13
sg14
S'.SF Compact Text'
p1100
sg16
I400
sg17
g13
sg18
g13
sg19
S'/System/Library/Fonts/SFCompactText-SemiboldItalic.otf'
p1101
sg21
g22
sbag7
(g8
g9
NtRp1102
(dp1103
g12
g74
sg14
S'Letter Gothic Std'
p1104
sg16
I400
sg17
g13
sg18
g13
sg19
S'/Library/Fonts/LetterGothicStd-Slanted.otf'
p1105
sg21
g22
sbag7
(g8
g9
NtRp1106
(dp1107
g12
g74
sg14
S'Myriad Pro'
p1108
sg16
I700
sg17
g13
sg18
g13
sg19
S'/Library/Fonts/MyriadPro-BoldIt.otf'
p1109
sg21
g22
sbag7
(g8
g9
NtRp1110
(dp1111
g12
g13
sg14
S'.Keyboard'
p1112
sg16
I400
sg17
g13
sg18
g13
sg19
S'/System/Library/Fonts/Keyboard.ttf'
p1113
sg21
g22
sbag7
(g8
g9
NtRp1114
(dp1115
g12
g74
sg14
S'Arimo for Powerline'
p1116
sg16
I700
sg17
g13
sg18
g13
sg19
S'/Users/adrianhsu/Library/Fonts/Arimo Bold Italic for Powerline.ttf'
p1117
sg21
g22
sbag7
(g8
g9
NtRp1118
(dp1119
g12
g13
sg14
S'Microsoft Sans Serif'
p1120
sg16
I400
sg17
g13
sg18
g13
sg19
S'/Library/Fonts/Microsoft Sans Serif.ttf'
p1121
sg21
g22
sbag7
(g8
g9
NtRp1122
(dp1123
g12
g13
sg14
S'STIXIntegralsUpD'
p1124
sg16
I700
sg17
g13
sg18
g13
sg19
S'/Library/Fonts/STIXIntUpDBol.otf'
p1125
sg21
g22
sbag7
(g8
g9
NtRp1126
(dp1127
g12
g13
sg14
S'Myriad Pro'
p1128
sg16
I700
sg17
g13
sg18
g13
sg19
S'/Library/Fonts/MyriadPro-Bold.otf'
p1129
sg21
g22
sbag7
(g8
g9
NtRp1130
(dp1131
g12
g13
sg14
S'STIXGeneral'
p1132
sg16
I400
sg17
g13
sg18
g13
sg19
S'/Library/Fonts/STIXGeneral.otf'
p1133
sg21
g22
sbag7
(g8
g9
NtRp1134
(dp1135
g12
g74
sg14
S'Cousine for Powerline'
p1136
sg16
I400
sg17
g13
sg18
g13
sg19
S'/Users/adrianhsu/Library/Fonts/Cousine Italic for Powerline.ttf'
p1137
sg21
g22
sbag7
(g8
g9
NtRp1138
(dp1139
g12
g13
sg14
S'Apple Chancery'
p1140
sg16
I400
sg17
g13
sg18
g13
sg19
S'/Library/Fonts/Apple Chancery.ttf'
p1141
sg21
g22
sbag7
(g8
g9
NtRp1142
(dp1143
g12
g25
sg14
S'DejaVu Sans Mono for Powerline'
p1144
sg16
I400
sg17
g13
sg18
g13
sg19
S'/Users/adrianhsu/Library/Fonts/DejaVu Sans Mono Oblique for Powerline.ttf'
p1145
sg21
g22
sbag7
(g8
g9
NtRp1146
(dp1147
g12
g13
sg14
S'STIXIntegralsUpSm'
p1148
sg16
I700
sg17
g13
sg18
g13
sg19
S'/Library/Fonts/STIXIntUpSmBol.otf'
p1149
sg21
g22
sbag7
(g8
g9
NtRp1150
(dp1151
g12
g74
sg14
S'Myriad Hebrew'
p1152
sg16
I700
sg17
g13
sg18
g13
sg19
S'/Library/Fonts/MyriadHebrew-BoldIt.otf'
p1153
sg21
g22
sbag7
(g8
g9
NtRp1154
(dp1155
g12
g13
sg14
S'STIXSizeOneSym'
p1156
sg16
I700
sg17
g13
sg18
g13
sg19
S'/Library/Fonts/STIXSizOneSymBol.otf'
p1157
sg21
g22
sbag7
(g8
g9
NtRp1158
(dp1159
g12
g13
sg14
S'Adobe Hebrew'
p1160
sg16
I400
sg17
g13
sg18
g13
sg19
S'/Library/Fonts/AdobeHebrew-Regular.otf'
p1161
sg21
g22
sbag7
(g8
g9
NtRp1162
(dp1163
g12
g13
sg14
S'STIXSizeTwoSym'
p1164
sg16
I400
sg17
g13
sg18
g13
sg19
S'/Library/Fonts/STIXSizTwoSymReg.otf'
p1165
sg21
g22
sbag7
(g8
g9
NtRp1166
(dp1167
g12
g13
sg14
S'Arial'
p1168
sg16
I700
sg17
g13
sg18
g13
sg19
S'/Library/Fonts/Arial Bold.ttf'
p1169
sg21
g22
sbag7
(g8
g9
NtRp1170
(dp1171
g12
g13
sg14
S'Georgia'
p1172
sg16
I700
sg17
g13
sg18
g13
sg19
S'/Library/Fonts/Georgia Bold.ttf'
p1173
sg21
g22
sbag7
(g8
g9
NtRp1174
(dp1175
g12
g13
sg14
S'Adobe Gurmukhi'
p1176
sg16
I700
sg17
g13
sg18
g13
sg19
S'/Library/Fonts/AdobeGurmukhi-Bold.otf'
p1177
sg21
g22
sbag7
(g8
g9
NtRp1178
(dp1179
g12
g13
sg14
S'STIXIntegralsUpD'
p1180
sg16
I400
sg17
g13
sg18
g13
sg19
S'/Library/Fonts/STIXIntUpDReg.otf'
p1181
sg21
g22
sbag7
(g8
g9
NtRp1182
(dp1183
g12
g13
sg14
S'Kozuka Gothic Pro'
p1184
sg16
I700
sg17
g13
sg18
g13
sg19
S'/Library/Fonts/KozGoPro-Bold.otf'
p1185
sg21
g22
sbag7
(g8
g9
NtRp1186
(dp1187
g12
g13
sg14
S'Kozuka Gothic Pro'
p1188
sg16
I400
sg17
g13
sg18
g13
sg19
S'/Library/Fonts/KozGoPro-Medium.otf'
p1189
sg21
g22
sbag7
(g8
g9
NtRp1190
(dp1191
g12
g13
sg14
S'Source Code Pro for Powerline'
p1192
sg16
I900
sg17
g13
sg18
g13
sg19
S'/Users/adrianhsu/Library/Fonts/Sauce Code Powerline Black.otf'
p1193
sg21
g22
sbag7
(g8
g9
NtRp1194
(dp1195
g12
g13
sg14
S'Adobe Gurmukhi'
p1196
sg16
I400
sg17
g13
sg18
g13
sg19
S'/Library/Fonts/AdobeGurmukhi-Regular.otf'
p1197
sg21
g22
sbag7
(g8
g9
NtRp1198
(dp1199
g12
g13
sg14
S'Arial Unicode MS'
p1200
sg16
I400
sg17
g13
sg18
g13
sg19
S'/Library/Fonts/Arial Unicode.ttf'
p1201
sg21
g22
sbag7
(g8
g9
NtRp1202
(dp1203
g12
g13
sg14
S'Adobe Heiti Std'
p1204
sg16
I400
sg17
g13
sg18
g13
sg19
S'/Library/Fonts/AdobeHeitiStd-Regular.otf'
p1205
sg21
g22
sbag7
(g8
g9
NtRp1206
(dp1207
g12
g13
sg14
S'Roboto Mono Medium for Powerline'
p1208
sg16
I500
sg17
g13
sg18
g13
sg19
S'/Users/adrianhsu/Library/Fonts/Roboto Mono Medium for Powerline.ttf'
p1209
sg21
g22
sbag7
(g8
g9
NtRp1210
(dp1211
g12
g74
sg14
S'Adobe Devanagari'
p1212
sg16
I400
sg17
g13
sg18
g13
sg19
S'/Library/Fonts/AdobeDevanagari-Italic.otf'
p1213
sg21
g22
sbag7
(g8
g9
NtRp1214
(dp1215
g12
g13
sg14
S'Myriad Hebrew'
p1216
sg16
I400
sg17
g13
sg18
g13
sg19
S'/Library/Fonts/MyriadHebrew-Regular.otf'
p1217
sg21
g22
sbag7
(g8
g9
NtRp1218
(dp1219
g12
g13
sg14
S'.SF NS Text Condensed'
p1220
sg16
I400
sg17
g13
sg18
g13
sg19
S'/System/Library/Fonts/SFNSTextCondensed-Bold.otf'
p1221
sg21
g22
sbag7
(g8
g9
NtRp1222
(dp1223
g12
g74
sg14
S'Roboto Mono for Powerline'
p1224
sg16
I700
sg17
g13
sg18
g13
sg19
S'/Users/adrianhsu/Library/Fonts/Roboto Mono Bold Italic for Powerline.ttf'
p1225
sg21
g22
sbag7
(g8
g9
NtRp1226
(dp1227
g12
g13
sg14
S'Kozuka Mincho Pr6N'
p1228
sg16
I400
sg17
g13
sg18
g13
sg19
S'/Library/Fonts/KozMinPr6N-Regular.otf'
p1229
sg21
g22
sbag7
(g8
g9
NtRp1230
(dp1231
g12
g13
sg14
S'.SF NS Text Condensed'
p1232
sg16
I400
sg17
g13
sg18
g13
sg19
S'/System/Library/Fonts/SFNSTextCondensed-Regular.otf'
p1233
sg21
g22
sbag7
(g8
g9
NtRp1234
(dp1235
g12
g13
sg14
S'STIXIntegralsD'
p1236
sg16
I700
sg17
g13
sg18
g13
sg19
S'/Library/Fonts/STIXIntDBol.otf'
p1237
sg21
g22
sbag7
(g8
g9
NtRp1238
(dp1239
g12
g13
sg14
S'Cousine for Powerline'
p1240
sg16
I400
sg17
g13
sg18
g13
sg19
S'/Users/adrianhsu/Library/Fonts/Cousine for Powerline.ttf'
p1241
sg21
g22
sbag7
(g8
g9
NtRp1242
(dp1243
g12
g13
sg14
S'Chaparral Pro'
p1244
sg16
I700
sg17
g13
sg18
g13
sg19
S'/Library/Fonts/ChaparralPro-Bold.otf'
p1245
sg21
g22
sbag7
(g8
g9
NtRp1246
(dp1247
g12
g13
sg14
S'DIN Alternate'
p1248
sg16
I700
sg17
g13
sg18
g13
sg19
S'/Library/Fonts/DIN Alternate Bold.ttf'
p1249
sg21
g22
sbag7
(g8
g9
NtRp1250
(dp1251
g12
g13
sg14
S'.SF Compact Display'
p1252
sg16
I400
sg17
g13
sg18
g13
sg19
S'/System/Library/Fonts/SFCompactDisplay-Bold.otf'
p1253
sg21
g22
sbag7
(g8
g9
NtRp1254
(dp1255
g12
g13
sg14
S'Droid Sans Mono Dotted for Powerline'
p1256
sg16
I400
sg17
g13
sg18
g13
sg19
S'/Users/adrianhsu/Library/Fonts/Droid Sans Mono Dotted for Powerline.ttf'
p1257
sg21
g22
sbag7
(g8
g9
NtRp1258
(dp1259
g12
g13
sg14
S'Courier New'
p1260
sg16
I400
sg17
g13
sg18
g13
sg19
S'/Library/Fonts/Courier New.ttf'
p1261
sg21
g22
sbag7
(g8
g9
NtRp1262
(dp1263
g12
g74
sg14
S'Arial Narrow'
p1264
sg16
I700
sg17
g168
sg18
g13
sg19
S'/Library/Fonts/Arial Narrow Bold Italic.ttf'
p1265
sg21
g22
sbag7
(g8
g9
NtRp1266
(dp1267
g12
g13
sg14
S'Zapfino'
p1268
sg16
I400
sg17
g13
sg18
g13
sg19
S'/Library/Fonts/Zapfino.ttf'
p1269
sg21
g22
sbag7
(g8
g9
NtRp1270
(dp1271
g12
g13
sg14
S'.SF NS Text Condensed'
p1272
sg16
I400
sg17
g13
sg18
g13
sg19
S'/System/Library/Fonts/SFNSTextCondensed-Heavy.otf'
p1273
sg21
g22
sbag7
(g8
g9
NtRp1274
(dp1275
g12
g13
sg14
S'Diwan Thuluth'
p1276
sg16
I400
sg17
g13
sg18
g13
sg19
S'/Library/Fonts/Diwan Thuluth.ttf'
p1277
sg21
g22
sbag7
(g8
g9
NtRp1278
(dp1279
g12
g13
sg14
S'.SF Compact Text'
p1280
sg16
I400
sg17
g13
sg18
g13
sg19
S'/System/Library/Fonts/SFCompactText-HeavyItalic.otf'
p1281
sg21
g22
sbag7
(g8
g9
NtRp1282
(dp1283
g12
g13
sg14
S'Myriad Hebrew'
p1284
sg16
I700
sg17
g13
sg18
g13
sg19
S'/Library/Fonts/MyriadHebrew-Bold.otf'
p1285
sg21
g22
sbag7
(g8
g9
NtRp1286
(dp1287
g12
g13
sg14
S'Liberation Mono for Powerline'
p1288
sg16
I700
sg17
g13
sg18
g13
sg19
S'/Users/adrianhsu/Library/Fonts/Literation Mono Powerline Bold.ttf'
p1289
sg21
g22
sbag7
(g8
g9
NtRp1290
(dp1291
g12
g74
sg14
S'Source Sans Pro'
p1292
sg16
I200
sg17
g13
sg18
g13
sg19
S'/Library/Fonts/SourceSansPro-LightIt.otf'
p1293
sg21
g22
sbag7
(g8
g9
NtRp1294
(dp1295
g12
g13
sg14
S'Minion Pro'
p1296
sg16
I700
sg17
g168
sg18
g13
sg19
S'/Library/Fonts/MinionPro-BoldCn.otf'
p1297
sg21
g22
sbag7
(g8
g9
NtRp1298
(dp1299
g12
g13
sg14
S'Inconsolata-dz for Powerline'
p1300
sg16
I400
sg17
g13
sg18
g13
sg19
S'/Users/adrianhsu/Library/Fonts/Inconsolata-dz for Powerline.otf'
p1301
sg21
g22
sbag7
(g8
g9
NtRp1302
(dp1303
g12
g13
sg14
S'Apple Braille'
p1304
sg16
I400
sg17
g13
sg18
g13
sg19
S'/System/Library/Fonts/Apple Braille Outline 8 Dot.ttf'
p1305
sg21
g22
sbag7
(g8
g9
NtRp1306
(dp1307
g12
g13
sg14
S'Krungthep'
p1308
sg16
I400
sg17
g13
sg18
g13
sg19
S'/Library/Fonts/Krungthep.ttf'
p1309
sg21
g22
sbag7
(g8
g9
NtRp1310
(dp1311
g12
g74
sg14
S'Anonymous Pro for Powerline'
p1312
sg16
I700
sg17
g13
sg18
g13
sg19
S'/Users/adrianhsu/Library/Fonts/Anonymice Powerline Bold Italic.ttf'
p1313
sg21
g22
sbag7
(g8
g9
NtRp1314
(dp1315
g12
g13
sg14
S'Times New Roman'
p1316
sg16
I700
sg17
g13
sg18
g13
sg19
S'/Library/Fonts/Times New Roman Bold.ttf'
p1317
sg21
g22
sbag7
(g8
g9
NtRp1318
(dp1319
g12
g74
sg14
S'Adobe Garamond Pro'
p1320
sg16
I400
sg17
g13
sg18
g13
sg19
S'/Library/Fonts/AGaramondPro-Italic.otf'
p1321
sg21
g22
sbag7
(g8
g9
NtRp1322
(dp1323
g12
g13
sg14
S'Droid Sans Mono for Powerline'
p1324
sg16
I400
sg17
g13
sg18
g13
sg19
S'/Users/adrianhsu/Library/Fonts/Droid Sans Mono for Powerline.otf'
p1325
sg21
g22
sbag7
(g8
g9
NtRp1326
(dp1327
g12
g13
sg14
S'STIXVariants'
p1328
sg16
I700
sg17
g13
sg18
g13
sg19
S'/Library/Fonts/STIXVarBol.otf'
p1329
sg21
g22
sbag7
(g8
g9
NtRp1330
(dp1331
g12
g13
sg14
S'STIXIntegralsUp'
p1332
sg16
I700
sg17
g13
sg18
g13
sg19
S'/Library/Fonts/STIXIntUpBol.otf'
p1333
sg21
g22
sbag7
(g8
g9
NtRp1334
(dp1335
g12
g13
sg14
S'STIXSizeTwoSym'
p1336
sg16
I700
sg17
g13
sg18
g13
sg19
S'/Library/Fonts/STIXSizTwoSymBol.otf'
p1337
sg21
g22
sbag7
(g8
g9
NtRp1338
(dp1339
g12
g74
sg14
S'Tinos for Powerline'
p1340
sg16
I700
sg17
g13
sg18
g13
sg19
S'/Users/adrianhsu/Library/Fonts/Tinos Bold Italic for Powerline.ttf'
p1341
sg21
g22
sbag7
(g8
g9
NtRp1342
(dp1343
g12
g13
sg14
S'Adobe Caslon Pro'
p1344
sg16
I700
sg17
g13
sg18
g13
sg19
S'/Library/Fonts/ACaslonPro-Semibold.otf'
p1345
sg21
g22
sbag7
(g8
g9
NtRp1346
(dp1347
g12
g13
sg14
S'Source Code Pro for Powerline'
p1348
sg16
I500
sg17
g13
sg18
g13
sg19
S'/Users/adrianhsu/Library/Fonts/Sauce Code Powerline Medium.otf'
p1349
sg21
g22
sbag7
(g8
g9
NtRp1350
(dp1351
g12
g13
sg14
S'Source Sans Pro'
p1352
sg16
I200
sg17
g13
sg18
g13
sg19
S'/Library/Fonts/SourceSansPro-ExtraLight.otf'
p1353
sg21
g22
sbag7
(g8
g9
NtRp1354
(dp1355
g12
g13
sg14
S'Apple Braille'
p1356
sg16
I400
sg17
g13
sg18
g13
sg19
S'/System/Library/Fonts/Apple Braille Pinpoint 8 Dot.ttf'
p1357
sg21
g22
sbag7
(g8
g9
NtRp1358
(dp1359
g12
g74
sg14
S'Georgia'
p1360
sg16
I400
sg17
g13
sg18
g13
sg19
S'/Library/Fonts/Georgia Italic.ttf'
p1361
sg21
g22
sbag7
(g8
g9
NtRp1362
(dp1363
g12
g13
sg14
S'Apple Braille'
p1364
sg16
I400
sg17
g13
sg18
g13
sg19
S'/System/Library/Fonts/Apple Braille Outline 6 Dot.ttf'
p1365
sg21
g22
sbag7
(g8
g9
NtRp1366
(dp1367
g12
g13
sg14
S'Adobe Hebrew'
p1368
sg16
I700
sg17
g13
sg18
g13
sg19
S'/Library/Fonts/AdobeHebrew-Bold.otf'
p1369
sg21
g22
sbag7
(g8
g9
NtRp1370
(dp1371
g12
g13
sg14
S'.SF Compact Display'
p1372
sg16
I400
sg17
g13
sg18
g13
sg19
S'/System/Library/Fonts/SFCompactDisplay-Semibold.otf'
p1373
sg21
g22
sbag7
(g8
g9
NtRp1374
(dp1375
g12
g13
sg14
S'Myriad Arabic'
p1376
sg16
I700
sg17
g13
sg18
g13
sg19
S'/Library/Fonts/MyriadArabic-Bold.otf'
p1377
sg21
g22
sbag7
(g8
g9
NtRp1378
(dp1379
g12
g13
sg14
S'Anonymous Pro for Powerline'
p1380
sg16
I400
sg17
g13
sg18
g13
sg19
S'/Users/adrianhsu/Library/Fonts/Anonymice Powerline.ttf'
p1381
sg21
g22
sbag7
(g8
g9
NtRp1382
(dp1383
g12
g13
sg14
S'Chaparral Pro'
p1384
sg16
I400
sg17
g13
sg18
g13
sg19
S'/Library/Fonts/ChaparralPro-Regular.otf'
p1385
sg21
g22
sbag7
(g8
g9
NtRp1386
(dp1387
g12
g13
sg14
S'.SF Compact Display'
p1388
sg16
I400
sg17
g13
sg18
g13
sg19
S'/System/Library/Fonts/SFCompactDisplay-Black.otf'
p1389
sg21
g22
sbag7
(g8
g9
NtRp1390
(dp1391
g12
g13
sg14
S'monofur for Powerline'
p1392
sg16
I700
sg17
g13
sg18
g13
sg19
S'/Users/adrianhsu/Library/Fonts/Monofur Bold for Powerline.ttf'
p1393
sg21
g22
sbag7
(g8
g9
NtRp1394
(dp1395
g12
g13
sg14
S'STIXGeneral'
p1396
sg16
I700
sg17
g13
sg18
g13
sg19
S'/Library/Fonts/STIXGeneralBol.otf'
p1397
sg21
g22
sbag7
(g8
g9
NtRp1398
(dp1399
g12
g13
sg14
S'Source Code Pro for Powerline'
p1400
sg16
I700
sg17
g13
sg18
g13
sg19
S'/Users/adrianhsu/Library/Fonts/Sauce Code Powerline Semibold.otf'
p1401
sg21
g22
sbag7
(g8
g9
NtRp1402
(dp1403
g12
g13
sg14
S'Adobe Caslon Pro'
p1404
sg16
I700
sg17
g13
sg18
g13
sg19
S'/Library/Fonts/ACaslonPro-Bold.otf'
p1405
sg21
g22
sbag7
(g8
g9
NtRp1406
(dp1407
g12
g13
sg14
S'Bradley Hand'
p1408
sg16
I700
sg17
g13
sg18
g13
sg19
S'/Library/Fonts/Bradley Hand Bold.ttf'
p1409
sg21
g22
sbag7
(g8
g9
NtRp1410
(dp1411
g12
g13
sg14
S'Kozuka Mincho Pr6N'
p1412
sg16
I400
sg17
g13
sg18
g13
sg19
S'/Library/Fonts/KozMinPr6N-ExtraLight.otf'
p1413
sg21
g22
sbag7
(g8
g9
NtRp1414
(dp1415
g12
g74
sg14
S'STIXGeneral'
p1416
sg16
I700
sg17
g13
sg18
g13
sg19
S'/Library/Fonts/STIXGeneralBolIta.otf'
p1417
sg21
g22
sbag7
(g8
g9
NtRp1418
(dp1419
g12
g13
sg14
S'Trebuchet MS'
p1420
sg16
I400
sg17
g13
sg18
g13
sg19
S'/Library/Fonts/Trebuchet MS.ttf'
p1421
sg21
g22
sbag7
(g8
g9
NtRp1422
(dp1423
g12
g13
sg14
S'.SF Compact Rounded'
p1424
sg16
I400
sg17
g13
sg18
g13
sg19
S'/System/Library/Fonts/SFCompactRounded-Thin.otf'
p1425
sg21
g22
sbag7
(g8
g9
NtRp1426
(dp1427
g12
g13
sg14
S'Courier New'
p1428
sg16
I700
sg17
g13
sg18
g13
sg19
S'/Library/Fonts/Courier New Bold.ttf'
p1429
sg21
g22
sbag7
(g8
g9
NtRp1430
(dp1431
g12
g74
sg14
S'monofur for Powerline'
p1432
sg16
I400
sg17
g13
sg18
g13
sg19
S'/Users/adrianhsu/Library/Fonts/Monofur Italic for Powerline.ttf'
p1433
sg21
g22
sbag7
(g8
g9
NtRp1434
(dp1435
g12
g13
sg14
S'Adobe Fangsong Std'
p1436
sg16
I400
sg17
g13
sg18
g13
sg19
S'/Library/Fonts/AdobeFangsongStd-Regular.otf'
p1437
sg21
g22
sbag7
(g8
g9
NtRp1438
(dp1439
g12
g13
sg14
S'Herculanum'
p1440
sg16
I400
sg17
g13
sg18
g13
sg19
S'/Library/Fonts/Herculanum.ttf'
p1441
sg21
g22
sbag7
(g8
g9
NtRp1442
(dp1443
g12
g74
sg14
S'Minion Pro'
p1444
sg16
I700
sg17
g13
sg18
g13
sg19
S'/Library/Fonts/MinionPro-SemiboldIt.otf'
p1445
sg21
g22
sbag7
(g8
g9
NtRp1446
(dp1447
g12
g13
sg14
S'Adobe Devanagari'
p1448
sg16
I400
sg17
g13
sg18
g13
sg19
S'/Library/Fonts/AdobeDevanagari-Regular.otf'
p1449
sg21
g22
sbag7
(g8
g9
NtRp1450
(dp1451
g12
g13
sg14
S'Wingdings 2'
p1452
sg16
I400
sg17
g13
sg18
g13
sg19
S'/Library/Fonts/Wingdings 2.ttf'
p1453
sg21
g22
sbag7
(g8
g9
NtRp1454
(dp1455
g12
g13
sg14
S'Source Code Pro for Powerline'
p1456
sg16
I200
sg17
g13
sg18
g13
sg19
S'/Users/adrianhsu/Library/Fonts/Sauce Code Powerline Light.otf'
p1457
sg21
g22
sbag7
(g8
g9
NtRp1458
(dp1459
g12
g13
sg14
S'Lithos Pro'
p1460
sg16
I900
sg17
g13
sg18
g13
sg19
S'/Library/Fonts/LithosPro-Black.otf'
p1461
sg21
g22
sbag7
(g8
g9
NtRp1462
(dp1463
g12
g13
sg14
S'Tahoma'
p1464
sg16
I400
sg17
g13
sg18
g13
sg19
S'/Library/Fonts/Tahoma.ttf'
p1465
sg21
g22
sbag7
(g8
g9
NtRp1466
(dp1467
g12
g74
sg14
S'Brush Script MT'
p1468
sg16
I400
sg17
g13
sg18
g13
sg19
S'/Library/Fonts/Brush Script.ttf'
p1469
sg21
g22
sbag7
(g8
g9
NtRp1470
(dp1471
g12
g13
sg14
S'.SF NS Display Condensed'
p1472
sg16
I400
sg17
g13
sg18
g13
sg19
S'/System/Library/Fonts/SFNSDisplayCondensed-Regular.otf'
p1473
sg21
g22
sbag7
(g8
g9
NtRp1474
(dp1475
g12
g13
sg14
S'.SF NS Display Condensed'
p1476
sg16
I400
sg17
g13
sg18
g13
sg19
S'/System/Library/Fonts/SFNSDisplayCondensed-Heavy.otf'
p1477
sg21
g22
sbag7
(g8
g9
NtRp1478
(dp1479
g12
g13
sg14
S'Khmer Sangam MN'
p1480
sg16
I400
sg17
g13
sg18
g13
sg19
S'/Library/Fonts/Khmer Sangam MN.ttf'
p1481
sg21
g22
sbag7
(g8
g9
NtRp1482
(dp1483
g12
g74
sg14
S'Myriad Hebrew'
p1484
sg16
I400
sg17
g13
sg18
g13
sg19
S'/Library/Fonts/MyriadHebrew-It.otf'
p1485
sg21
g22
sbag7
(g8
g9
NtRp1486
(dp1487
g12
g13
sg14
S'.SF Compact Text'
p1488
sg16
I400
sg17
g13
sg18
g13
sg19
S'/System/Library/Fonts/SFCompactText-Light.otf'
p1489
sg21
g22
sbag7
(g8
g9
NtRp1490
(dp1491
g12
g13
sg14
S'.SF Compact Display'
p1492
sg16
I400
sg17
g13
sg18
g13
sg19
S'/System/Library/Fonts/SFCompactDisplay-Ultralight.otf'
p1493
sg21
g22
sbag7
(g8
g9
NtRp1494
(dp1495
g12
g13
sg14
S'Source Sans Pro'
p1496
sg16
I400
sg17
g13
sg18
g13
sg19
S'/Library/Fonts/SourceSansPro-Regular.otf'
p1497
sg21
g22
sbag7
(g8
g9
NtRp1498
(dp1499
g12
g13
sg14
S'Fira Mono Medium for Powerline'
p1500
sg16
I500
sg17
g13
sg18
g13
sg19
S'/Users/adrianhsu/Library/Fonts/FuraMono-Medium Powerline.otf'
p1501
sg21
g22
sbag7
(g8
g9
NtRp1502
(dp1503
g12
g13
sg14
S'.SF NS Display Condensed'
p1504
sg16
I400
sg17
g13
sg18
g13
sg19
S'/System/Library/Fonts/SFNSDisplayCondensed-Medium.otf'
p1505
sg21
g22
sbag7
(g8
g9
NtRp1506
(dp1507
g12
g13
sg14
S'Meslo LG L DZ for Powerline'
p1508
sg16
I400
sg17
g13
sg18
g13
sg19
S'/Users/adrianhsu/Library/Fonts/Meslo LG L DZ Regular for Powerline.otf'
p1509
sg21
g22
sbag7
(g8
g9
NtRp1510
(dp1511
g12
g13
sg14
S'.SF Compact Text'
p1512
sg16
I400
sg17
g13
sg18
g13
sg19
S'/System/Library/Fonts/SFCompactText-LightItalic.otf'
p1513
sg21
g22
sbag7
(g8
g9
NtRp1514
(dp1515
g12
g13
sg14
S'Kozuka Mincho Pro'
p1516
sg16
I400
sg17
g13
sg18
g13
sg19
S'/Library/Fonts/KozMinPro-ExtraLight.otf'
p1517
sg21
g22
sbag7
(g8
g9
NtRp1518
(dp1519
g12
g13
sg14
S'.SF NS Text Condensed'
p1520
sg16
I400
sg17
g13
sg18
g13
sg19
S'/System/Library/Fonts/SFNSTextCondensed-Medium.otf'
p1521
sg21
g22
sbag7
(g8
g9
NtRp1522
(dp1523
g12
g13
sg14
S'System Font'
p1524
sg16
I400
sg17
g13
sg18
g13
sg19
S'/System/Library/Fonts/SFNSDisplay.ttf'
p1525
sg21
g22
sbag7
(g8
g9
NtRp1526
(dp1527
g12
g13
sg14
S'Apple Symbols'
p1528
sg16
I400
sg17
g13
sg18
g13
sg19
S'/System/Library/Fonts/Apple Symbols.ttf'
p1529
sg21
g22
sbag7
(g8
g9
NtRp1530
(dp1531
g12
g13
sg14
S'Trattatello'
p1532
sg16
I400
sg17
g13
sg18
g13
sg19
S'/Library/Fonts/Trattatello.ttf'
p1533
sg21
g22
sbag7
(g8
g9
NtRp1534
(dp1535
g12
g13
sg14
S'Hobo Std'
p1536
sg16
I500
sg17
g13
sg18
g13
sg19
S'/Library/Fonts/HoboStd.otf'
p1537
sg21
g22
sbag7
(g8
g9
NtRp1538
(dp1539
g12
g13
sg14
S'Kozuka Mincho Pro'
p1540
sg16
I400
sg17
g13
sg18
g13
sg19
S'/Library/Fonts/KozMinPro-Light.otf'
p1541
sg21
g22
sbag7
(g8
g9
NtRp1542
(dp1543
g12
g13
sg14
S'Kozuka Mincho Pr6N'
p1544
sg16
I400
sg17
g13
sg18
g13
sg19
S'/Library/Fonts/KozMinPr6N-Medium.otf'
p1545
sg21
g22
sbag7
(g8
g9
NtRp1546
(dp1547
g12
g13
sg14
S'.LastResort'
p1548
sg16
I400
sg17
g13
sg18
g13
sg19
S'/System/Library/Fonts/LastResort.ttf'
p1549
sg21
g22
sbag7
(g8
g9
NtRp1550
(dp1551
g12
g13
sg14
S'Nueva Std'
p1552
sg16
I700
sg17
g13
sg18
g13
sg19
S'/Library/Fonts/NuevaStd-Bold.otf'
p1553
sg21
g22
sbag7
(g8
g9
NtRp1554
(dp1555
g12
g13
sg14
S'STIXIntegralsD'
p1556
sg16
I400
sg17
g13
sg18
g13
sg19
S'/Library/Fonts/STIXIntDReg.otf'
p1557
sg21
g22
sbag7
(g8
g9
NtRp1558
(dp1559
g12
g13
sg14
S'.SF Compact Display'
p1560
sg16
I400
sg17
g13
sg18
g13
sg19
S'/System/Library/Fonts/SFCompactDisplay-Heavy.otf'
p1561
sg21
g22
sbag7
(g8
g9
NtRp1562
(dp1563
g12
g13
sg14
S'Kozuka Gothic Pro'
p1564
sg16
I400
sg17
g13
sg18
g13
sg19
S'/Library/Fonts/KozGoPro-Regular.otf'
p1565
sg21
g22
sbag7
(g8
g9
NtRp1566
(dp1567
g12
g13
sg14
S'Sathu'
p1568
sg16
I400
sg17
g13
sg18
g13
sg19
S'/Library/Fonts/Sathu.ttf'
p1569
sg21
g22
sbag7
(g8
g9
NtRp1570
(dp1571
g12
g13
sg14
S'Comic Sans MS'
p1572
sg16
I400
sg17
g13
sg18
g13
sg19
S'/Library/Fonts/Comic Sans MS.ttf'
p1573
sg21
g22
sbag7
(g8
g9
NtRp1574
(dp1575
g12
g13
sg14
S'Arimo for Powerline'
p1576
sg16
I400
sg17
g13
sg18
g13
sg19
S'/Users/adrianhsu/Library/Fonts/Arimo for Powerline.ttf'
p1577
sg21
g22
sbasS'defaultFamily'
p1578
(dp1579
S'afm'
p1580
S'Helvetica'
p1581
sS'ttf'
p1582
S'Bitstream Vera Sans'
p1583
ssS'ttffiles'
p1584
(lp1585
S'/System/Library/Frameworks/Python.framework/Versions/2.7/Extras/lib/python/matplotlib/mpl-data/fonts/ttf/cmex10.ttf'
p1586
aS'/System/Library/Frameworks/Python.framework/Versions/2.7/Extras/lib/python/matplotlib/mpl-data/fonts/ttf/VeraBI.ttf'
p1587
aS'/System/Library/Frameworks/Python.framework/Versions/2.7/Extras/lib/python/matplotlib/mpl-data/fonts/ttf/STIXNonUni.ttf'
p1588
aS'/System/Library/Frameworks/Python.framework/Versions/2.7/Extras/lib/python/matplotlib/mpl-data/fonts/ttf/STIXNonUniBol.ttf'
p1589
aS'/System/Library/Frameworks/Python.framework/Versions/2.7/Extras/lib/python/matplotlib/mpl-data/fonts/ttf/VeraMoBd.ttf'
p1590
aS'/System/Library/Frameworks/Python.framework/Versions/2.7/Extras/lib/python/matplotlib/mpl-data/fonts/ttf/cmr10.ttf'
p1591
aS'/System/Library/Frameworks/Python.framework/Versions/2.7/Extras/lib/python/matplotlib/mpl-data/fonts/ttf/STIXGeneral.ttf'
p1592
aS'/System/Library/Frameworks/Python.framework/Versions/2.7/Extras/lib/python/matplotlib/mpl-data/fonts/ttf/VeraMoIt.ttf'
p1593
aS'/System/Library/Frameworks/Python.framework/Versions/2.7/Extras/lib/python/matplotlib/mpl-data/fonts/ttf/VeraSe.ttf'
p1594
aS'/System/Library/Frameworks/Python.framework/Versions/2.7/Extras/lib/python/matplotlib/mpl-data/fonts/ttf/STIXSizFiveSymReg.ttf'
p1595
aS'/System/Library/Frameworks/Python.framework/Versions/2.7/Extras/lib/python/matplotlib/mpl-data/fonts/ttf/VeraMono.ttf'
p1596
aS'/System/Library/Frameworks/Python.framework/Versions/2.7/Extras/lib/python/matplotlib/mpl-data/fonts/ttf/VeraMoBI.ttf'
p1597
aS'/System/Library/Frameworks/Python.framework/Versions/2.7/Extras/lib/python/matplotlib/mpl-data/fonts/ttf/STIXGeneralBol.ttf'
p1598
aS'/System/Library/Frameworks/Python.framework/Versions/2.7/Extras/lib/python/matplotlib/mpl-data/fonts/ttf/STIXGeneralItalic.ttf'
p1599
aS'/System/Library/Frameworks/Python.framework/Versions/2.7/Extras/lib/python/matplotlib/mpl-data/fonts/ttf/STIXSizFourSymReg.ttf'
p1600
aS'/System/Library/Frameworks/Python.framework/Versions/2.7/Extras/lib/python/matplotlib/mpl-data/fonts/ttf/STIXSizThreeSymBol.ttf'
p1601
aS'/System/Library/Frameworks/Python.framework/Versions/2.7/Extras/lib/python/matplotlib/mpl-data/fonts/ttf/STIXSizOneSymBol.ttf'
p1602
aS'/System/Library/Frameworks/Python.framework/Versions/2.7/Extras/lib/python/matplotlib/mpl-data/fonts/ttf/STIXSizFourSymBol.ttf'
p1603
aS'/System/Library/Frameworks/Python.framework/Versions/2.7/Extras/lib/python/matplotlib/mpl-data/fonts/ttf/VeraBd.ttf'
p1604
aS'/System/Library/Frameworks/Python.framework/Versions/2.7/Extras/lib/python/matplotlib/mpl-data/fonts/ttf/cmsy10.ttf'
p1605
aS'/System/Library/Frameworks/Python.framework/Versions/2.7/Extras/lib/python/matplotlib/mpl-data/fonts/ttf/STIXSizTwoSymReg.ttf'
p1606
aS'/System/Library/Frameworks/Python.framework/Versions/2.7/Extras/lib/python/matplotlib/mpl-data/fonts/ttf/STIXNonUniBolIta.ttf'
p1607
aS'/System/Library/Frameworks/Python.framework/Versions/2.7/Extras/lib/python/matplotlib/mpl-data/fonts/ttf/cmb10.ttf'
p1608
aS'/System/Library/Frameworks/Python.framework/Versions/2.7/Extras/lib/python/matplotlib/mpl-data/fonts/ttf/cmss10.ttf'
p1609
aS'/System/Library/Frameworks/Python.framework/Versions/2.7/Extras/lib/python/matplotlib/mpl-data/fonts/ttf/STIXSizThreeSymReg.ttf'
p1610
aS'/System/Library/Frameworks/Python.framework/Versions/2.7/Extras/lib/python/matplotlib/mpl-data/fonts/ttf/STIXSizOneSymReg.ttf'
p1611
aS'/System/Library/Frameworks/Python.framework/Versions/2.7/Extras/lib/python/matplotlib/mpl-data/fonts/ttf/Vera.ttf'
p1612
aS'/System/Library/Frameworks/Python.framework/Versions/2.7/Extras/lib/python/matplotlib/mpl-data/fonts/ttf/cmmi10.ttf'
p1613
aS'/System/Library/Frameworks/Python.framework/Versions/2.7/Extras/lib/python/matplotlib/mpl-data/fonts/ttf/VeraSeBd.ttf'
p1614
aS'/System/Library/Frameworks/Python.framework/Versions/2.7/Extras/lib/python/matplotlib/mpl-data/fonts/ttf/VeraIt.ttf'
p1615
aS'/System/Library/Frameworks/Python.framework/Versions/2.7/Extras/lib/python/matplotlib/mpl-data/fonts/ttf/STIXSizTwoSymBol.ttf'
p1616
aS'/System/Library/Frameworks/Python.framework/Versions/2.7/Extras/lib/python/matplotlib/mpl-data/fonts/ttf/STIXNonUniIta.ttf'
p1617
aS'/System/Library/Frameworks/Python.framework/Versions/2.7/Extras/lib/python/matplotlib/mpl-data/fonts/ttf/cmtt10.ttf'
p1618
aS'/System/Library/Frameworks/Python.framework/Versions/2.7/Extras/lib/python/matplotlib/mpl-data/fonts/ttf/STIXGeneralBolIta.ttf'
p1619
aS'/Library/Fonts/Trebuchet MS Italic.ttf'
p1620
aS'/Library/Fonts/Times New Roman.ttf'
p1621
aS'/Library/Fonts/MyriadPro-CondIt.otf'
p1622
aS'/Users/adrianhsu/Library/Fonts/Symbol Neu for Powerline.ttf'
p1623
aS'/Users/adrianhsu/Library/Fonts/Inconsolata-g for Powerline.otf'
p1624
aS'/Library/Fonts/PoplarStd.otf'
p1625
aS'/Library/Fonts/TrajanPro3-Bold.otf'
p1626
aS'/Library/Fonts/KozGoPr6N-ExtraLight.otf'
p1627
aS'/Users/adrianhsu/Library/Fonts/Arimo Bold for Powerline.ttf'
p1628
aS'/Users/adrianhsu/Library/Fonts/Hack-Italic.ttf'
p1629
aS'/Library/Fonts/NISC18030.ttf'
p1630
aS'/Library/Fonts/SourceSansPro-BlackIt.otf'
p1631
aS'/System/Library/Fonts/SFCompactRounded-Ultralight.otf'
p1632
aS'/Library/Fonts/AppleMyungjo.ttf'
p1633
aS'/Users/adrianhsu/Library/Fonts/Roboto Mono Light for Powerline.ttf'
p1634
aS'/Library/Fonts/Mishafi Gold.ttf'
p1635
aS'/Users/adrianhsu/Library/Fonts/DejaVu Sans Mono Bold Oblique for Powerline.ttf'
p1636
aS'/Users/adrianhsu/Library/Fonts/Tinos Bold for Powerline.ttf'
p1637
aS'/Library/Fonts/STIXSizThreeSymBol.otf'
p1638
aS'/Library/Fonts/KozMinPr6N-Heavy.otf'
p1639
aS'/Library/Fonts/MyriadPro-It.otf'
p1640
aS'/Users/adrianhsu/Library/Fonts/Cousine Bold Italic for Powerline.ttf'
p1641
aS'/Library/Fonts/MinionPro-It.otf'
p1642
aS'/System/Library/Fonts/SFCompactRounded-Light.otf'
p1643
aS'/Users/adrianhsu/Library/Fonts/Monofur for Powerline.ttf'
p1644
aS'/Library/Fonts/KozGoPr6N-Regular.otf'
p1645
aS'/Library/Fonts/Arial Bold Italic.ttf'
p1646
aS'/Library/Fonts/TektonPro-Bold.otf'
p1647
aS'/Library/Fonts/MyriadArabic-It.otf'
p1648
aS'/Library/Fonts/NuevaStd-Italic.otf'
p1649
aS'/Users/adrianhsu/Library/Fonts/Ubuntu Mono derivative Powerline Bold.ttf'
p1650
aS'/Library/Fonts/LetterGothicStd.otf'
p1651
aS'/Library/Fonts/STIXSizFiveSymReg.otf'
p1652
aS'/Library/Fonts/Gurmukhi.ttf'
p1653
aS'/System/Library/Fonts/SFCompactText-Bold.otf'
p1654
aS'/Users/adrianhsu/Library/Fonts/FuraMono-Bold Powerline.otf'
p1655
aS'/Library/Fonts/TektonPro-BoldObl.otf'
p1656
aS'/Library/Fonts/AdobeMyungjoStd-Medium.otf'
p1657
aS'/Users/adrianhsu/Library/Fonts/Ubuntu Mono derivative Powerline Italic.ttf'
p1658
aS'/Library/Fonts/AdobeGothicStd-Bold.otf'
p1659
aS'/Library/Fonts/MyriadPro-Semibold.otf'
p1660
aS'/Users/adrianhsu/Library/Fonts/Roboto Mono Light Italic for Powerline.ttf'
p1661
aS'/Library/Fonts/KozMinPr6N-Bold.otf'
p1662
aS'/Library/Fonts/Verdana Bold Italic.ttf'
p1663
aS'/Library/Fonts/STIXSizOneSymReg.otf'
p1664
aS'/System/Library/Fonts/SFNSDisplayCondensed-Black.otf'
p1665
aS'/Library/Fonts/Kokonor.ttf'
p1666
aS'/Users/adrianhsu/Library/Fonts/Meslo LG M Regular for Powerline.otf'
p1667
aS'/Library/Fonts/AdobeDevanagari-BoldItalic.otf'
p1668
aS'/System/Library/Fonts/Apple Braille.ttf'
p1669
aS'/Library/Fonts/SourceSansPro-Black.otf'
p1670
aS'/Users/adrianhsu/Library/Fonts/Ubuntu Mono derivative Powerline.ttf'
p1671
aS'/Users/adrianhsu/Library/Fonts/DejaVu Sans Mono Bold for Powerline.ttf'
p1672
aS'/Library/Fonts/STIXNonUniIta.otf'
p1673
aS'/Library/Fonts/TektonPro-BoldExt.otf'
p1674
aS'/Library/Fonts/ChaparralPro-Italic.otf'
p1675
aS'/Library/Fonts/Comic Sans MS Bold.ttf'
p1676
aS'/Library/Fonts/AGaramondPro-BoldItalic.otf'
p1677
aS'/Users/adrianhsu/Library/Fonts/Roboto Mono for Powerline.ttf'
p1678
aS'/Library/Fonts/STIXNonUniBol.otf'
p1679
aS'/Library/Fonts/Webdings.ttf'
p1680
aS'/System/Library/Fonts/Apple Braille Pinpoint 6 Dot.ttf'
p1681
aS'/System/Library/Fonts/Symbol.ttf'
p1682
aS'/Library/Fonts/KozGoPro-Heavy.otf'
p1683
aS'/Library/Fonts/STIXIntUpSmReg.otf'
p1684
aS'/Users/adrianhsu/Library/Fonts/Droid Sans Mono Slashed for Powerline.ttf'
p1685
aS'/Library/Fonts/MinionPro-MediumIt.otf'
p1686
aS'/Library/Fonts/KozMinPro-Regular.otf'
p1687
aS'/Library/Fonts/Courier New Italic.ttf'
p1688
aS'/Library/Fonts/Arial Black.ttf'
p1689
aS'/Library/Fonts/MyriadPro-SemiboldIt.otf'
p1690
aS'/Users/adrianhsu/Library/Fonts/Ubuntu Mono derivative Powerline Bold Italic.ttf'
p1691
aS'/System/Library/Fonts/SFCompactDisplay-Thin.otf'
p1692
aS'/Library/Fonts/STIXGeneralItalic.otf'
p1693
aS'/Library/Fonts/MyriadPro-BoldCondIt.otf'
p1694
aS'/Users/adrianhsu/Library/Fonts/DejaVu Sans Mono for Powerline.ttf'
p1695
aS'/Users/adrianhsu/Library/Fonts/Hack-BoldItalic.ttf'
p1696
aS'/Library/Fonts/STIXSizFourSymReg.otf'
p1697
aS'/Library/Fonts/AdobeKaitiStd-Regular.otf'
p1698
aS'/Library/Fonts/NuevaStd-Cond.otf'
p1699
aS'/System/Library/Fonts/SFNSDisplayCondensed-Semibold.otf'
p1700
aS'/Library/Fonts/Wingdings 3.ttf'
p1701
aS'/Users/adrianhsu/Library/Fonts/Roboto Mono Bold for Powerline.ttf'
p1702
aS'/System/Library/Fonts/SFCompactText-Regular.otf'
p1703
aS'/Users/adrianhsu/Library/Fonts/Anonymice Powerline Italic.ttf'
p1704
aS'/Library/Fonts/KozMinPr6N-Light.otf'
p1705
aS'/Users/adrianhsu/Library/Fonts/Meslo LG S DZ Regular for Powerline.otf'
p1706
aS'/Library/Fonts/STIXSizFourSymBol.otf'
p1707
aS'/Library/Fonts/KozGoPr6N-Medium.otf'
p1708
aS'/Library/Fonts/MinionPro-Medium.otf'
p1709
aS'/Library/Fonts/Wingdings.ttf'
p1710
aS'/Library/Fonts/Impact.ttf'
p1711
aS'/System/Library/Fonts/SFNSTextCondensed-Light.otf'
p1712
aS'/Library/Fonts/Georgia Bold Italic.ttf'
p1713
aS'/Library/Fonts/TektonPro-BoldCond.otf'
p1714
aS'/System/Library/Fonts/SFCompactRounded-Regular.otf'
p1715
aS'/Library/Fonts/MyriadArabic-BoldIt.otf'
p1716
aS'/Library/Fonts/Hoefler Text Ornaments.ttf'
p1717
aS'/System/Library/Fonts/SFCompactText-BoldItalic.otf'
p1718
aS'/Library/Fonts/ChaparralPro-LightIt.otf'
p1719
aS'/Library/Fonts/AdobeArabic-Italic.otf'
p1720
aS'/Library/Fonts/SourceSansPro-BoldIt.otf'
p1721
aS'/System/Library/Fonts/SFCompactRounded-Medium.otf'
p1722
aS'/Library/Fonts/AdobeArabic-Bold.otf'
p1723
aS'/Library/Fonts/SourceSansPro-Bold.otf'
p1724
aS'/Library/Fonts/MyriadArabic-Regular.otf'
p1725
aS'/Library/Fonts/AGaramondPro-Regular.otf'
p1726
aS'/System/Library/Fonts/SFNSDisplayCondensed-Bold.otf'
p1727
aS'/Library/Fonts/LetterGothicStd-BoldSlanted.otf'
p1728
aS'/Users/adrianhsu/Library/Fonts/Roboto Mono Thin Italic for Powerline.ttf'
p1729
aS'/System/Library/Fonts/SFCompactText-Medium.otf'
p1730
aS'/System/Library/Fonts/ZapfDingbats.ttf'
p1731
aS'/System/Library/Fonts/SFCompactRounded-Semibold.otf'
p1732
aS'/System/Library/Fonts/SFNSTextItalic.ttf'
p1733
aS'/Library/Fonts/AGaramondPro-Bold.otf'
p1734
aS'/Library/Fonts/Luminari.ttf'
p1735
aS'/Library/Fonts/MyriadPro-Regular.otf'
p1736
aS'/Library/Fonts/MyriadPro-Cond.otf'
p1737
aS'/Users/adrianhsu/Library/Fonts/Arimo Italic for Powerline.ttf'
p1738
aS'/Library/Fonts/Trebuchet MS Bold Italic.ttf'
p1739
aS'/Library/Fonts/STIXIntSmBol.otf'
p1740
aS'/Library/Fonts/AdobeMingStd-Light.otf'
p1741
aS'/Users/adrianhsu/Library/Fonts/Anonymice Powerline Bold.ttf'
p1742
aS'/Library/Fonts/KozGoPro-ExtraLight.otf'
p1743
aS'/Library/Fonts/ChaparralPro-BoldIt.otf'
p1744
aS'/Library/Fonts/AdobeSongStd-Light.otf'
p1745
aS'/System/Library/Fonts/SFCompactText-Semibold.otf'
p1746
aS'/Library/Fonts/AdobeHebrew-BoldItalic.otf'
p1747
aS'/Library/Fonts/Verdana.ttf'
p1748
aS'/Library/Fonts/Farisi.ttf'
p1749
aS'/System/Library/Fonts/SFNSText.ttf'
p1750
aS'/Library/Fonts/STIXNonUni.otf'
p1751
aS'/Library/Fonts/Bodoni 72 Smallcaps Book.ttf'
p1752
aS'/Users/adrianhsu/Library/Fonts/Hack-Regular.ttf'
p1753
aS'/Library/Fonts/Arial Italic.ttf'
p1754
aS'/Library/Fonts/Trebuchet MS Bold.ttf'
p1755
aS'/Library/Fonts/ACaslonPro-Italic.otf'
p1756
aS'/Users/adrianhsu/Library/Fonts/Tinos Italic for Powerline.ttf'
p1757
aS'/Library/Fonts/STIXNonUniBolIta.otf'
p1758
aS'/Library/Fonts/AdobeDevanagari-Bold.otf'
p1759
aS'/Library/Fonts/BrushScriptStd.otf'
p1760
aS'/Library/Fonts/TrajanPro3-Regular.otf'
p1761
aS'/Users/adrianhsu/Library/Fonts/Meslo LG S Regular for Powerline.otf'
p1762
aS'/Library/Fonts/SourceSansPro-It.otf'
p1763
aS'/Library/Fonts/STIXIntSmReg.otf'
p1764
aS'/Library/Fonts/MyriadPro-BoldCond.otf'
p1765
aS'/Library/Fonts/Verdana Italic.ttf'
p1766
aS'/Library/Fonts/Chalkduster.ttf'
p1767
aS'/Library/Fonts/SourceSansPro-ExtraLightIt.otf'
p1768
aS'/Library/Fonts/MinionPro-BoldIt.otf'
p1769
aS'/Library/Fonts/ACaslonPro-Regular.otf'
p1770
aS'/Library/Fonts/STIXIntUpReg.otf'
p1771
aS'/Users/adrianhsu/Library/Fonts/Literation Mono Powerline Bold Italic.ttf'
p1772
aS'/Users/adrianhsu/Library/Fonts/Sauce Code Powerline ExtraLight.otf'
p1773
aS'/System/Library/Fonts/SFCompactRounded-Black.otf'
p1774
aS'/Library/Fonts/AdobeHebrew-Italic.otf'
p1775
aS'/Library/Fonts/Ayuthaya.ttf'
p1776
aS'/System/Library/Fonts/SFCompactRounded-Bold.otf'
p1777
aS'/Library/Fonts/OratorStd.otf'
p1778
aS'/Library/Fonts/BlackoakStd.otf'
p1779
aS'/Library/Fonts/MinionPro-Bold.otf'
p1780
aS'/Library/Fonts/MinionPro-BoldCnIt.otf'
p1781
aS'/Library/Fonts/Andale Mono.ttf'
p1782
aS'/Library/Fonts/LetterGothicStd-Bold.otf'
p1783
aS'/Library/Fonts/Silom.ttf'
p1784
aS'/Library/Fonts/Tahoma Bold.ttf'
p1785
aS'/Library/Fonts/AdobeFanHeitiStd-Bold.otf'
p1786
aS'/Library/Fonts/KozGoPr6N-Heavy.otf'
p1787
aS'/Library/Fonts/Lao Sangam MN.ttf'
p1788
aS'/Library/Fonts/Bodoni Ornaments.ttf'
p1789
aS'/Users/adrianhsu/Library/Fonts/Hack-Bold.ttf'
p1790
aS'/Library/Fonts/ACaslonPro-BoldItalic.otf'
p1791
aS'/Users/adrianhsu/Library/Fonts/Inconsolata for Powerline.otf'
p1792
aS'/Library/Fonts/ACaslonPro-SemiboldItalic.otf'
p1793
aS'/Library/Fonts/BigCaslon.ttf'
p1794
aS'/Users/adrianhsu/Library/Fonts/Sauce Code Powerline Regular.otf'
p1795
aS'/Users/adrianhsu/Library/Fonts/Sauce Code Powerline Bold.otf'
p1796
aS'/Library/Fonts/AdobeNaskh-Medium.otf'
p1797
aS'/Library/Fonts/SourceSansPro-SemiboldIt.otf'
p1798
aS'/Library/Fonts/OCRAStd.otf'
p1799
aS'/Library/Fonts/Verdana Bold.ttf'
p1800
aS'/Library/Fonts/STIXSizThreeSymReg.otf'
p1801
aS'/Users/adrianhsu/Library/Fonts/Meslo LG M DZ Regular for Powerline.otf'
p1802
aS'/Library/Fonts/DIN Condensed Bold.ttf'
p1803
aS'/Library/Fonts/Arial.ttf'
p1804
aS'/Library/Fonts/AppleGothic.ttf'
p1805
aS'/Users/adrianhsu/Library/Fonts/Roboto Mono Italic for Powerline.ttf'
p1806
aS'/Library/Fonts/Arial Narrow.ttf'
p1807
aS'/System/Library/Fonts/SFCompactDisplay-Medium.otf'
p1808
aS'/System/Library/Fonts/SFCompactRounded-Heavy.otf'
p1809
aS'/Library/Fonts/SourceSansPro-Semibold.otf'
p1810
aS'/System/Library/Fonts/SFCompactText-RegularItalic.otf'
p1811
aS'/Users/adrianhsu/Library/Fonts/Literation Mono Powerline Italic.ttf'
p1812
aS'/Users/adrianhsu/Library/Fonts/Roboto Mono Medium Italic for Powerline.ttf'
p1813
aS'/Library/Fonts/SourceSansPro-Light.otf'
p1814
aS'/Users/adrianhsu/Library/Fonts/Cousine Bold for Powerline.ttf'
p1815
aS'/Library/Fonts/Arial Narrow Bold.ttf'
p1816
aS'/Library/Fonts/Times New Roman Italic.ttf'
p1817
aS'/System/Library/Fonts/SFNSDisplayCondensed-Light.otf'
p1818
aS'/Library/Fonts/Georgia.ttf'
p1819
aS'/Library/Fonts/CharlemagneStd-Bold.otf'
p1820
aS'/Library/Fonts/PrestigeEliteStd-Bd.otf'
p1821
aS'/Library/Fonts/MinionPro-Regular.otf'
p1822
aS'/Users/adrianhsu/Library/Fonts/Literation Mono Powerline.ttf'
p1823
aS'/Library/Fonts/Times New Roman Bold Italic.ttf'
p1824
aS'/Library/Fonts/Arial Narrow Italic.ttf'
p1825
aS'/System/Library/Fonts/SFCompactDisplay-Regular.otf'
p1826
aS'/System/Library/Fonts/SFNSDisplayCondensed-Ultralight.otf'
p1827
aS'/Library/Fonts/PlantagenetCherokee.ttf'
p1828
aS'/Library/Fonts/STIXVar.otf'
p1829
aS'/Library/Fonts/Mishafi.ttf'
p1830
aS'/Users/adrianhsu/Library/Fonts/Tinos for Powerline.ttf'
p1831
aS'/Library/Fonts/BirchStd.otf'
p1832
aS'/Library/Fonts/Skia.ttf'
p1833
aS'/Users/adrianhsu/Library/Fonts/FuraMono-Regular Powerline.otf'
p1834
aS'/Library/Fonts/KozGoPr6N-Bold.otf'
p1835
aS'/Library/Fonts/AdobeArabic-Regular.otf'
p1836
aS'/System/Library/Fonts/SFCompactDisplay-Light.otf'
p1837
aS'/Library/Fonts/KozMinPro-Heavy.otf'
p1838
aS'/Library/Fonts/LithosPro-Regular.otf'
p1839
aS'/Library/Fonts/KozMinPro-Bold.otf'
p1840
aS'/Library/Fonts/NuevaStd-BoldCond.otf'
p1841
aS'/Library/Fonts/Courier New Bold Italic.ttf'
p1842
aS'/Library/Fonts/Arial Rounded Bold.ttf'
p1843
aS'/Library/Fonts/AdobeArabic-BoldItalic.otf'
p1844
aS'/System/Library/Fonts/SFNSDisplayCondensed-Thin.otf'
p1845
aS'/Library/Fonts/KozGoPr6N-Light.otf'
p1846
aS'/Users/adrianhsu/Library/Fonts/Meslo LG L Regular for Powerline.otf'
p1847
aS'/Library/Fonts/KozMinPro-Medium.otf'
p1848
aS'/System/Library/Fonts/SFCompactText-Heavy.otf'
p1849
aS'/Library/Fonts/InaiMathi.ttf'
p1850
aS'/Library/Fonts/KozGoPro-Light.otf'
p1851
aS'/System/Library/Fonts/SFCompactText-MediumItalic.otf'
p1852
aS'/Library/Fonts/MinionPro-Semibold.otf'
p1853
aS'/System/Library/Fonts/SFNSTextCondensed-Semibold.otf'
p1854
aS'/Users/adrianhsu/Library/Fonts/Roboto Mono Thin for Powerline.ttf'
p1855
aS'/System/Library/Fonts/SFCompactText-SemiboldItalic.otf'
p1856
aS'/Library/Fonts/LetterGothicStd-Slanted.otf'
p1857
aS'/Library/Fonts/MyriadPro-BoldIt.otf'
p1858
aS'/System/Library/Fonts/Keyboard.ttf'
p1859
aS'/Users/adrianhsu/Library/Fonts/Arimo Bold Italic for Powerline.ttf'
p1860
aS'/Library/Fonts/Microsoft Sans Serif.ttf'
p1861
aS'/Library/Fonts/STIXIntUpDBol.otf'
p1862
aS'/Library/Fonts/MyriadPro-Bold.otf'
p1863
aS'/Library/Fonts/STIXGeneral.otf'
p1864
aS'/Users/adrianhsu/Library/Fonts/Cousine Italic for Powerline.ttf'
p1865
aS'/Library/Fonts/Apple Chancery.ttf'
p1866
aS'/Users/adrianhsu/Library/Fonts/DejaVu Sans Mono Oblique for Powerline.ttf'
p1867
aS'/Library/Fonts/STIXIntUpSmBol.otf'
p1868
aS'/Library/Fonts/MyriadHebrew-BoldIt.otf'
p1869
aS'/Library/Fonts/STIXSizOneSymBol.otf'
p1870
aS'/Library/Fonts/AdobeHebrew-Regular.otf'
p1871
aS'/Library/Fonts/STIXSizTwoSymReg.otf'
p1872
aS'/Library/Fonts/Arial Bold.ttf'
p1873
aS'/Library/Fonts/Georgia Bold.ttf'
p1874
aS'/Library/Fonts/AdobeGurmukhi-Bold.otf'
p1875
aS'/Library/Fonts/STIXIntUpDReg.otf'
p1876
aS'/Library/Fonts/KozGoPro-Bold.otf'
p1877
aS'/Library/Fonts/KozGoPro-Medium.otf'
p1878
aS'/Users/adrianhsu/Library/Fonts/Sauce Code Powerline Black.otf'
p1879
aS'/Library/Fonts/AdobeGurmukhi-Regular.otf'
p1880
aS'/Library/Fonts/Arial Unicode.ttf'
p1881
aS'/Library/Fonts/AdobeHeitiStd-Regular.otf'
p1882
aS'/Users/adrianhsu/Library/Fonts/Roboto Mono Medium for Powerline.ttf'
p1883
aS'/Library/Fonts/AdobeDevanagari-Italic.otf'
p1884
aS'/Library/Fonts/MyriadHebrew-Regular.otf'
p1885
aS'/System/Library/Fonts/SFNSTextCondensed-Bold.otf'
p1886
aS'/Users/adrianhsu/Library/Fonts/Roboto Mono Bold Italic for Powerline.ttf'
p1887
aS'/Library/Fonts/KozMinPr6N-Regular.otf'
p1888
aS'/System/Library/Fonts/SFNSTextCondensed-Regular.otf'
p1889
aS'/Library/Fonts/STIXIntDBol.otf'
p1890
aS'/Users/adrianhsu/Library/Fonts/Cousine for Powerline.ttf'
p1891
aS'/Library/Fonts/ChaparralPro-Bold.otf'
p1892
aS'/Library/Fonts/DIN Alternate Bold.ttf'
p1893
aS'/System/Library/Fonts/SFCompactDisplay-Bold.otf'
p1894
aS'/Users/adrianhsu/Library/Fonts/Droid Sans Mono Dotted for Powerline.ttf'
p1895
aS'/Library/Fonts/Courier New.ttf'
p1896
aS'/Library/Fonts/Arial Narrow Bold Italic.ttf'
p1897
aS'/Library/Fonts/Zapfino.ttf'
p1898
aS'/System/Library/Fonts/SFNSTextCondensed-Heavy.otf'
p1899
aS'/Library/Fonts/Diwan Thuluth.ttf'
p1900
aS'/System/Library/Fonts/SFCompactText-HeavyItalic.otf'
p1901
aS'/Library/Fonts/MyriadHebrew-Bold.otf'
p1902
aS'/Users/adrianhsu/Library/Fonts/Literation Mono Powerline Bold.ttf'
p1903
aS'/Library/Fonts/SourceSansPro-LightIt.otf'
p1904
aS'/Library/Fonts/MinionPro-BoldCn.otf'
p1905
aS'/Users/adrianhsu/Library/Fonts/Inconsolata-dz for Powerline.otf'
p1906
aS'/System/Library/Fonts/Apple Braille Outline 8 Dot.ttf'
p1907
aS'/Library/Fonts/Krungthep.ttf'
p1908
aS'/Users/adrianhsu/Library/Fonts/Anonymice Powerline Bold Italic.ttf'
p1909
aS'/Library/Fonts/Times New Roman Bold.ttf'
p1910
aS'/Library/Fonts/AGaramondPro-Italic.otf'
p1911
aS'/Users/adrianhsu/Library/Fonts/Droid Sans Mono for Powerline.otf'
p1912
aS'/Library/Fonts/STIXVarBol.otf'
p1913
aS'/Library/Fonts/STIXIntUpBol.otf'
p1914
aS'/Library/Fonts/STIXSizTwoSymBol.otf'
p1915
aS'/Users/adrianhsu/Library/Fonts/Tinos Bold Italic for Powerline.ttf'
p1916
aS'/Library/Fonts/ACaslonPro-Semibold.otf'
p1917
aS'/Users/adrianhsu/Library/Fonts/Sauce Code Powerline Medium.otf'
p1918
aS'/Library/Fonts/SourceSansPro-ExtraLight.otf'
p1919
aS'/System/Library/Fonts/Apple Braille Pinpoint 8 Dot.ttf'
p1920
aS'/Library/Fonts/Georgia Italic.ttf'
p1921
aS'/System/Library/Fonts/Apple Braille Outline 6 Dot.ttf'
p1922
aS'/Library/Fonts/AdobeHebrew-Bold.otf'
p1923
aS'/System/Library/Fonts/SFCompactDisplay-Semibold.otf'
p1924
aS'/Library/Fonts/MyriadArabic-Bold.otf'
p1925
aS'/Users/adrianhsu/Library/Fonts/Anonymice Powerline.ttf'
p1926
aS'/Library/Fonts/ChaparralPro-Regular.otf'
p1927
aS'/System/Library/Fonts/SFCompactDisplay-Black.otf'
p1928
aS'/Users/adrianhsu/Library/Fonts/Monofur Bold for Powerline.ttf'
p1929
aS'/Library/Fonts/STIXGeneralBol.otf'
p1930
aS'/Users/adrianhsu/Library/Fonts/Sauce Code Powerline Semibold.otf'
p1931
aS'/Library/Fonts/ACaslonPro-Bold.otf'
p1932
aS'/Library/Fonts/Bradley Hand Bold.ttf'
p1933
aS'/Library/Fonts/KozMinPr6N-ExtraLight.otf'
p1934
aS'/Library/Fonts/STIXGeneralBolIta.otf'
p1935
aS'/Library/Fonts/Trebuchet MS.ttf'
p1936
aS'/System/Library/Fonts/SFCompactRounded-Thin.otf'
p1937
aS'/Library/Fonts/Courier New Bold.ttf'
p1938
aS'/Users/adrianhsu/Library/Fonts/Monofur Italic for Powerline.ttf'
p1939
aS'/Library/Fonts/AdobeFangsongStd-Regular.otf'
p1940
aS'/Library/Fonts/Herculanum.ttf'
p1941
aS'/Library/Fonts/MinionPro-SemiboldIt.otf'
p1942
aS'/Library/Fonts/AdobeDevanagari-Regular.otf'
p1943
aS'/Library/Fonts/Wingdings 2.ttf'
p1944
aS'/Users/adrianhsu/Library/Fonts/Sauce Code Powerline Light.otf'
p1945
aS'/Library/Fonts/LithosPro-Black.otf'
p1946
aS'/Library/Fonts/Tahoma.ttf'
p1947
aS'/Library/Fonts/Brush Script.ttf'
p1948
aS'/System/Library/Fonts/SFNSDisplayCondensed-Regular.otf'
p1949
aS'/System/Library/Fonts/SFNSDisplayCondensed-Heavy.otf'
p1950
aS'/Library/Fonts/Khmer Sangam MN.ttf'
p1951
aS'/Library/Fonts/MyriadHebrew-It.otf'
p1952
aS'/System/Library/Fonts/SFCompactText-Light.otf'
p1953
aS'/System/Library/Fonts/SFCompactDisplay-Ultralight.otf'
p1954
aS'/Library/Fonts/SourceSansPro-Regular.otf'
p1955
aS'/Users/adrianhsu/Library/Fonts/FuraMono-Medium Powerline.otf'
p1956
aS'/System/Library/Fonts/SFNSDisplayCondensed-Medium.otf'
p1957
aS'/Users/adrianhsu/Library/Fonts/Meslo LG L DZ Regular for Powerline.otf'
p1958
aS'/System/Library/Fonts/SFCompactText-LightItalic.otf'
p1959
aS'/Library/Fonts/KozMinPro-ExtraLight.otf'
p1960
aS'/System/Library/Fonts/SFNSTextCondensed-Medium.otf'
p1961
aS'/System/Library/Fonts/SFNSDisplay.ttf'
p1962
aS'/System/Library/Fonts/Apple Symbols.ttf'
p1963
aS'/Library/Fonts/Trattatello.ttf'
p1964
aS'/Library/Fonts/HoboStd.otf'
p1965
aS'/Library/Fonts/KozMinPro-Light.otf'
p1966
aS'/Library/Fonts/KozMinPr6N-Medium.otf'
p1967
aS'/System/Library/Fonts/LastResort.ttf'
p1968
aS'/Library/Fonts/NuevaStd-Bold.otf'
p1969
aS'/Library/Fonts/STIXIntDReg.otf'
p1970
aS'/System/Library/Fonts/SFCompactDisplay-Heavy.otf'
p1971
aS'/Library/Fonts/KozGoPro-Regular.otf'
p1972
aS'/Library/Fonts/Sathu.ttf'
p1973
aS'/Library/Fonts/Comic Sans MS.ttf'
p1974
aS'/Users/adrianhsu/Library/Fonts/Arimo for Powerline.ttf'
p1975
asS'_FontManager__default_weight'
p1976
g13
sS'_version'
p1977
I101
sS'ttf_lookup_cache'
p1978
(dp1979
sS'default_size'
p1980
NsS'defaultFont'
p1981
(dp1982
g1580
S'/System/Library/Frameworks/Python.framework/Versions/2.7/Extras/lib/python/matplotlib/mpl-data/fonts/afm/phvl8a.afm'
p1983
sg1582
g1612
ssS'afmfiles'
p1984
(lp1985
g1983
aS'/System/Library/Frameworks/Python.framework/Versions/2.7/Extras/lib/python/matplotlib/mpl-data/fonts/afm/putbi8a.afm'
p1986
aS'/System/Library/Frameworks/Python.framework/Versions/2.7/Extras/lib/python/matplotlib/mpl-data/fonts/afm/pbkl8a.afm'
p1987
aS'/System/Library/Frameworks/Python.framework/Versions/2.7/Extras/lib/python/matplotlib/mpl-data/fonts/afm/phvbo8a.afm'
p1988
aS'/System/Library/Frameworks/Python.framework/Versions/2.7/Extras/lib/python/matplotlib/mpl-data/fonts/afm/phvb8an.afm'
p1989
aS'/System/Library/Frameworks/Python.framework/Versions/2.7/Extras/lib/python/matplotlib/mpl-data/fonts/pdfcorefonts/Symbol.afm'
p1990
aS'/System/Library/Frameworks/Python.framework/Versions/2.7/Extras/lib/python/matplotlib/mpl-data/fonts/afm/phvbo8an.afm'
p1991
aS'/System/Library/Frameworks/Python.framework/Versions/2.7/Extras/lib/python/matplotlib/mpl-data/fonts/pdfcorefonts/Times-Roman.afm'
p1992
aS'/System/Library/Frameworks/Python.framework/Versions/2.7/Extras/lib/python/matplotlib/mpl-data/fonts/afm/pncr8a.afm'
p1993
aS'/System/Library/Frameworks/Python.framework/Versions/2.7/Extras/lib/python/matplotlib/mpl-data/fonts/afm/pzdr.afm'
p1994
aS'/System/Library/Frameworks/Python.framework/Versions/2.7/Extras/lib/python/matplotlib/mpl-data/fonts/afm/phvlo8a.afm'
p1995
aS'/System/Library/Frameworks/Python.framework/Versions/2.7/Extras/lib/python/matplotlib/mpl-data/fonts/pdfcorefonts/Times-Italic.afm'
p1996
aS'/System/Library/Frameworks/Python.framework/Versions/2.7/Extras/lib/python/matplotlib/mpl-data/fonts/pdfcorefonts/Helvetica.afm'
p1997
aS'/System/Library/Frameworks/Python.framework/Versions/2.7/Extras/lib/python/matplotlib/mpl-data/fonts/afm/phvr8an.afm'
p1998
aS'/System/Library/Frameworks/Python.framework/Versions/2.7/Extras/lib/python/matplotlib/mpl-data/fonts/pdfcorefonts/Courier-Bold.afm'
p1999
aS'/System/Library/Frameworks/Python.framework/Versions/2.7/Extras/lib/python/matplotlib/mpl-data/fonts/pdfcorefonts/Helvetica-Bold.afm'
p2000
aS'/System/Library/Frameworks/Python.framework/Versions/2.7/Extras/lib/python/matplotlib/mpl-data/fonts/afm/ptmb8a.afm'
p2001
aS'/System/Library/Frameworks/Python.framework/Versions/2.7/Extras/lib/python/matplotlib/mpl-data/fonts/afm/pagd8a.afm'
p2002
aS'/System/Library/Frameworks/Python.framework/Versions/2.7/Extras/lib/python/matplotlib/mpl-data/fonts/afm/psyr.afm'
p2003
aS'/System/Library/Frameworks/Python.framework/Versions/2.7/Extras/lib/python/matplotlib/mpl-data/fonts/pdfcorefonts/ZapfDingbats.afm'
p2004
aS'/System/Library/Frameworks/Python.framework/Versions/2.7/Extras/lib/python/matplotlib/mpl-data/fonts/afm/putr8a.afm'
p2005
aS'/System/Library/Frameworks/Python.framework/Versions/2.7/Extras/lib/python/matplotlib/mpl-data/fonts/afm/cmtt10.afm'
p2006
aS'/System/Library/Frameworks/Python.framework/Versions/2.7/Extras/lib/python/matplotlib/mpl-data/fonts/afm/ptmri8a.afm'
p2007
aS'/System/Library/Frameworks/Python.framework/Versions/2.7/Extras/lib/python/matplotlib/mpl-data/fonts/afm/ptmr8a.afm'
p2008
aS'/System/Library/Frameworks/Python.framework/Versions/2.7/Extras/lib/python/matplotlib/mpl-data/fonts/pdfcorefonts/Helvetica-Oblique.afm'
p2009
aS'/System/Library/Frameworks/Python.framework/Versions/2.7/Extras/lib/python/matplotlib/mpl-data/fonts/afm/cmr10.afm'
p2010
aS'/System/Library/Frameworks/Python.framework/Versions/2.7/Extras/lib/python/matplotlib/mpl-data/fonts/pdfcorefonts/Courier-Oblique.afm'
p2011
aS'/System/Library/Frameworks/Python.framework/Versions/2.7/Extras/lib/python/matplotlib/mpl-data/fonts/afm/pcrro8a.afm'
p2012
aS'/System/Library/Frameworks/Python.framework/Versions/2.7/Extras/lib/python/matplotlib/mpl-data/fonts/pdfcorefonts/Courier.afm'
p2013
aS'/System/Library/Frameworks/Python.framework/Versions/2.7/Extras/lib/python/matplotlib/mpl-data/fonts/afm/ptmbi8a.afm'
p2014
aS'/System/Library/Frameworks/Python.framework/Versions/2.7/Extras/lib/python/matplotlib/mpl-data/fonts/afm/pagdo8a.afm'
p2015
aS'/System/Library/Frameworks/Python.framework/Versions/2.7/Extras/lib/python/matplotlib/mpl-data/fonts/pdfcorefonts/Times-BoldItalic.afm'
p2016
aS'/System/Library/Frameworks/Python.framework/Versions/2.7/Extras/lib/python/matplotlib/mpl-data/fonts/pdfcorefonts/Helvetica-BoldOblique.afm'
p2017
aS'/System/Library/Frameworks/Python.framework/Versions/2.7/Extras/lib/python/matplotlib/mpl-data/fonts/afm/pbkd8a.afm'
p2018
aS'/System/Library/Frameworks/Python.framework/Versions/2.7/Extras/lib/python/matplotlib/mpl-data/fonts/afm/pplr8a.afm'
p2019
aS'/System/Library/Frameworks/Python.framework/Versions/2.7/Extras/lib/python/matplotlib/mpl-data/fonts/afm/pagk8a.afm'
p2020
aS'/System/Library/Frameworks/Python.framework/Versions/2.7/Extras/lib/python/matplotlib/mpl-data/fonts/afm/putri8a.afm'
p2021
aS'/System/Library/Frameworks/Python.framework/Versions/2.7/Extras/lib/python/matplotlib/mpl-data/fonts/afm/pcrbo8a.afm'
p2022
aS'/System/Library/Frameworks/Python.framework/Versions/2.7/Extras/lib/python/matplotlib/mpl-data/fonts/afm/pcrb8a.afm'
p2023
aS'/System/Library/Frameworks/Python.framework/Versions/2.7/Extras/lib/python/matplotlib/mpl-data/fonts/afm/phvro8a.afm'
p2024
aS'/System/Library/Frameworks/Python.framework/Versions/2.7/Extras/lib/python/matplotlib/mpl-data/fonts/afm/pbkdi8a.afm'
p2025
aS'/System/Library/Frameworks/Python.framework/Versions/2.7/Extras/lib/python/matplotlib/mpl-data/fonts/pdfcorefonts/Times-Bold.afm'
p2026
aS'/System/Library/Frameworks/Python.framework/Versions/2.7/Extras/lib/python/matplotlib/mpl-data/fonts/afm/pplri8a.afm'
p2027
aS'/System/Library/Frameworks/Python.framework/Versions/2.7/Extras/lib/python/matplotlib/mpl-data/fonts/afm/pncb8a.afm'
p2028
aS'/System/Library/Frameworks/Python.framework/Versions/2.7/Extras/lib/python/matplotlib/mpl-data/fonts/afm/putb8a.afm'
p2029
aS'/System/Library/Frameworks/Python.framework/Versions/2.7/Extras/lib/python/matplotlib/mpl-data/fonts/afm/pncbi8a.afm'
p2030
aS'/System/Library/Frameworks/Python.framework/Versions/2.7/Extras/lib/python/matplotlib/mpl-data/fonts/afm/pbkli8a.afm'
p2031
aS'/System/Library/Frameworks/Python.framework/Versions/2.7/Extras/lib/python/matplotlib/mpl-data/fonts/afm/phvb8a.afm'
p2032
aS'/System/Library/Frameworks/Python.framework/Versions/2.7/Extras/lib/python/matplotlib/mpl-data/fonts/afm/pcrr8a.afm'
p2033
aS'/System/Library/Frameworks/Python.framework/Versions/2.7/Extras/lib/python/matplotlib/mpl-data/fonts/afm/cmsy10.afm'
p2034
aS'/System/Library/Frameworks/Python.framework/Versions/2.7/Extras/lib/python/matplotlib/mpl-data/fonts/afm/cmmi10.afm'
p2035
aS'/System/Library/Frameworks/Python.framework/Versions/2.7/Extras/lib/python/matplotlib/mpl-data/fonts/afm/pplbi8a.afm'
p2036
aS'/System/Library/Frameworks/Python.framework/Versions/2.7/Extras/lib/python/matplotlib/mpl-data/fonts/afm/cmex10.afm'
p2037
aS'/System/Library/Frameworks/Python.framework/Versions/2.7/Extras/lib/python/matplotlib/mpl-data/fonts/afm/pncri8a.afm'
p2038
aS'/System/Library/Frameworks/Python.framework/Versions/2.7/Extras/lib/python/matplotlib/mpl-data/fonts/afm/pagko8a.afm'
p2039
aS'/System/Library/Frameworks/Python.framework/Versions/2.7/Extras/lib/python/matplotlib/mpl-data/fonts/afm/pzcmi8a.afm'
p2040
aS'/System/Library/Frameworks/Python.framework/Versions/2.7/Extras/lib/python/matplotlib/mpl-data/fonts/pdfcorefonts/Courier-BoldOblique.afm'
p2041
aS'/System/Library/Frameworks/Python.framework/Versions/2.7/Extras/lib/python/matplotlib/mpl-data/fonts/afm/phvro8an.afm'
p2042
aS'/System/Library/Frameworks/Python.framework/Versions/2.7/Extras/lib/python/matplotlib/mpl-data/fonts/afm/pplb8a.afm'
p2043
aS'/System/Library/Frameworks/Python.framework/Versions/2.7/Extras/lib/python/matplotlib/mpl-data/fonts/afm/phvr8a.afm'
p2044
asS'afmlist'
p2045
(lp2046
g7
(g8
g9
NtRp2047
(dp2048
g12
g13
sg14
S'Helvetica'
p2049
sg16
I200
sg17
g13
sg18
g13
sg19
g1983
sg21
g22
sbag7
(g8
g9
NtRp2050
(dp2051
g12
g74
sg14
S'Utopia'
p2052
sg16
I700
sg17
g13
sg18
g13
sg19
g1986
sg21
g22
sbag7
(g8
g9
NtRp2053
(dp2054
g12
g13
sg14
S'ITC Bookman'
p2055
sg16
I200
sg17
g13
sg18
g13
sg19
g1987
sg21
g22
sbag7
(g8
g9
NtRp2056
(dp2057
g12
g74
sg14
S'Helvetica'
p2058
sg16
I700
sg17
g13
sg18
g13
sg19
g1988
sg21
g22
sbag7
(g8
g9
NtRp2059
(dp2060
g12
g13
sg14
S'Helvetica'
p2061
sg16
I700
sg17
g168
sg18
g13
sg19
g1989
sg21
g22
sbag7
(g8
g9
NtRp2062
(dp2063
g12
g13
sg14
S'Symbol'
p2064
sg16
I500
sg17
g13
sg18
g13
sg19
g1990
sg21
g22
sbag7
(g8
g9
NtRp2065
(dp2066
g12
g74
sg14
S'Helvetica'
p2067
sg16
I700
sg17
g168
sg18
g13
sg19
g1991
sg21
g22
sbag7
(g8
g9
NtRp2068
(dp2069
g12
g13
sg14
S'Times'
p2070
sg16
I500
sg17
g13
sg18
g13
sg19
g1992
sg21
g22
sbag7
(g8
g9
NtRp2071
(dp2072
g12
g13
sg14
S'New Century Schoolbook'
p2073
sg16
I500
sg17
g13
sg18
g13
sg19
g1993
sg21
g22
sbag7
(g8
g9
NtRp2074
(dp2075
g12
g13
sg14
S'ITC Zapf Dingbats'
p2076
sg16
I500
sg17
g13
sg18
g13
sg19
g1994
sg21
g22
sbag7
(g8
g9
NtRp2077
(dp2078
g12
g74
sg14
S'Helvetica'
p2079
sg16
I200
sg17
g13
sg18
g13
sg19
g1995
sg21
g22
sbag7
(g8
g9
NtRp2080
(dp2081
g12
g74
sg14
S'Times'
p2082
sg16
I500
sg17
g13
sg18
g13
sg19
g1996
sg21
g22
sbag7
(g8
g9
NtRp2083
(dp2084
g12
g13
sg14
S'Helvetica'
p2085
sg16
I500
sg17
g13
sg18
g13
sg19
g1997
sg21
g22
sbag7
(g8
g9
NtRp2086
(dp2087
g12
g13
sg14
S'Helvetica'
p2088
sg16
I500
sg17
g168
sg18
g13
sg19
g1998
sg21
g22
sbag7
(g8
g9
NtRp2089
(dp2090
g12
g13
sg14
S'Courier'
p2091
sg16
I700
sg17
g13
sg18
g13
sg19
g1999
sg21
g22
sbag7
(g8
g9
NtRp2092
(dp2093
g12
g13
sg14
S'Helvetica'
p2094
sg16
I700
sg17
g13
sg18
g13
sg19
g2000
sg21
g22
sbag7
(g8
g9
NtRp2095
(dp2096
g12
g13
sg14
S'Times'
p2097
sg16
I700
sg17
g13
sg18
g13
sg19
g2001
sg21
g22
sbag7
(g8
g9
NtRp2098
(dp2099
g12
g13
sg14
S'ITC Avant Garde Gothic'
p2100
sg16
I600
sg17
g13
sg18
g13
sg19
g2002
sg21
g22
sbag7
(g8
g9
NtRp2101
(dp2102
g12
g13
sg14
S'Symbol'
p2103
sg16
I500
sg17
g13
sg18
g13
sg19
g2003
sg21
g22
sbag7
(g8
g9
NtRp2104
(dp2105
g12
g13
sg14
S'ZapfDingbats'
p2106
sg16
I500
sg17
g13
sg18
g13
sg19
g2004
sg21
g22
sbag7
(g8
g9
NtRp2107
(dp2108
g12
g13
sg14
S'Utopia'
p2109
sg16
I400
sg17
g13
sg18
g13
sg19
g2005
sg21
g22
sbag7
(g8
g9
NtRp2110
(dp2111
g12
g13
sg14
S'Computer Modern'
p2112
sg16
I500
sg17
g13
sg18
g13
sg19
g2006
sg21
g22
sbag7
(g8
g9
NtRp2113
(dp2114
g12
g74
sg14
S'Times'
p2115
sg16
I500
sg17
g13
sg18
g13
sg19
g2007
sg21
g22
sbag7
(g8
g9
NtRp2116
(dp2117
g12
g13
sg14
S'Times'
p2118
sg16
I500
sg17
g13
sg18
g13
sg19
g2008
sg21
g22
sbag7
(g8
g9
NtRp2119
(dp2120
g12
g74
sg14
S'Helvetica'
p2121
sg16
I500
sg17
g13
sg18
g13
sg19
g2009
sg21
g22
sbag7
(g8
g9
NtRp2122
(dp2123
g12
g13
sg14
S'Computer Modern'
p2124
sg16
I500
sg17
g13
sg18
g13
sg19
g2010
sg21
g22
sbag7
(g8
g9
NtRp2125
(dp2126
g12
g74
sg14
S'Courier'
p2127
sg16
I500
sg17
g13
sg18
g13
sg19
g2011
sg21
g22
sbag7
(g8
g9
NtRp2128
(dp2129
g12
g74
sg14
S'Courier'
p2130
sg16
I500
sg17
g13
sg18
g13
sg19
g2012
sg21
g22
sbag7
(g8
g9
NtRp2131
(dp2132
g12
g13
sg14
S'Courier'
p2133
sg16
I500
sg17
g13
sg18
g13
sg19
g2013
sg21
g22
sbag7
(g8
g9
NtRp2134
(dp2135
g12
g74
sg14
S'Times'
p2136
sg16
I700
sg17
g13
sg18
g13
sg19
g2014
sg21
g22
sbag7
(g8
g9
NtRp2137
(dp2138
g12
g74
sg14
S'ITC Avant Garde Gothic'
p2139
sg16
I600
sg17
g13
sg18
g13
sg19
g2015
sg21
g22
sbag7
(g8
g9
NtRp2140
(dp2141
g12
g74
sg14
S'Times'
p2142
sg16
I700
sg17
g13
sg18
g13
sg19
g2016
sg21
g22
sbag7
(g8
g9
NtRp2143
(dp2144
g12
g74
sg14
S'Helvetica'
p2145
sg16
I700
sg17
g13
sg18
g13
sg19
g2017
sg21
g22
sbag7
(g8
g9
NtRp2146
(dp2147
g12
g13
sg14
S'ITC Bookman'
p2148
sg16
I600
sg17
g13
sg18
g13
sg19
g2018
sg21
g22
sbag7
(g8
g9
NtRp2149
(dp2150
g12
g13
sg14
S'Palatino'
p2151
sg16
I500
sg17
g13
sg18
g13
sg19
g2019
sg21
g22
sbag7
(g8
g9
NtRp2152
(dp2153
g12
g13
sg14
S'ITC Avant Garde Gothic'
p2154
sg16
I400
sg17
g13
sg18
g13
sg19
g2020
sg21
g22
sbag7
(g8
g9
NtRp2155
(dp2156
g12
g74
sg14
S'Utopia'
p2157
sg16
I400
sg17
g13
sg18
g13
sg19
g2021
sg21
g22
sbag7
(g8
g9
NtRp2158
(dp2159
g12
g74
sg14
S'Courier'
p2160
sg16
I700
sg17
g13
sg18
g13
sg19
g2022
sg21
g22
sbag7
(g8
g9
NtRp2161
(dp2162
g12
g13
sg14
S'Courier'
p2163
sg16
I700
sg17
g13
sg18
g13
sg19
g2023
sg21
g22
sbag7
(g8
g9
NtRp2164
(dp2165
g12
g74
sg14
S'Helvetica'
p2166
sg16
I500
sg17
g13
sg18
g13
sg19
g2024
sg21
g22
sbag7
(g8
g9
NtRp2167
(dp2168
g12
g74
sg14
S'ITC Bookman'
p2169
sg16
I600
sg17
g13
sg18
g13
sg19
g2025
sg21
g22
sbag7
(g8
g9
NtRp2170
(dp2171
g12
g13
sg14
S'Times'
p2172
sg16
I700
sg17
g13
sg18
g13
sg19
g2026
sg21
g22
sbag7
(g8
g9
NtRp2173
(dp2174
g12
g74
sg14
S'Palatino'
p2175
sg16
I500
sg17
g13
sg18
g13
sg19
g2027
sg21
g22
sbag7
(g8
g9
NtRp2176
(dp2177
g12
g13
sg14
S'New Century Schoolbook'
p2178
sg16
I700
sg17
g13
sg18
g13
sg19
g2028
sg21
g22
sbag7
(g8
g9
NtRp2179
(dp2180
g12
g13
sg14
S'Utopia'
p2181
sg16
I700
sg17
g13
sg18
g13
sg19
g2029
sg21
g22
sbag7
(g8
g9
NtRp2182
(dp2183
g12
g74
sg14
S'New Century Schoolbook'
p2184
sg16
I700
sg17
g13
sg18
g13
sg19
g2030
sg21
g22
sbag7
(g8
g9
NtRp2185
(dp2186
g12
g74
sg14
S'ITC Bookman'
p2187
sg16
I200
sg17
g13
sg18
g13
sg19
g2031
sg21
g22
sbag7
(g8
g9
NtRp2188
(dp2189
g12
g13
sg14
S'Helvetica'
p2190
sg16
I700
sg17
g13
sg18
g13
sg19
g2032
sg21
g22
sbag7
(g8
g9
NtRp2191
(dp2192
g12
g13
sg14
S'Courier'
p2193
sg16
I500
sg17
g13
sg18
g13
sg19
g2033
sg21
g22
sbag7
(g8
g9
NtRp2194
(dp2195
g12
g74
sg14
S'Computer Modern'
p2196
sg16
I500
sg17
g13
sg18
g13
sg19
g2034
sg21
g22
sbag7
(g8
g9
NtRp2197
(dp2198
g12
g74
sg14
S'Computer Modern'
p2199
sg16
I500
sg17
g13
sg18
g13
sg19
g2035
sg21
g22
sbag7
(g8
g9
NtRp2200
(dp2201
g12
g74
sg14
S'Palatino'
p2202
sg16
I700
sg17
g13
sg18
g13
sg19
g2036
sg21
g22
sbag7
(g8
g9
NtRp2203
(dp2204
g12
g13
sg14
S'Computer Modern'
p2205
sg16
I500
sg17
g13
sg18
g13
sg19
g2037
sg21
g22
sbag7
(g8
g9
NtRp2206
(dp2207
g12
g74
sg14
S'New Century Schoolbook'
p2208
sg16
I500
sg17
g13
sg18
g13
sg19
g2038
sg21
g22
sbag7
(g8
g9
NtRp2209
(dp2210
g12
g74
sg14
S'ITC Avant Garde Gothic'
p2211
sg16
I400
sg17
g13
sg18
g13
sg19
g2039
sg21
g22
sbag7
(g8
g9
NtRp2212
(dp2213
g12
g74
sg14
S'ITC Zapf Chancery'
p2214
sg16
I500
sg17
g13
sg18
g13
sg19
g2040
sg21
g22
sbag7
(g8
g9
NtRp2215
(dp2216
g12
g74
sg14
S'Courier'
p2217
sg16
I700
sg17
g13
sg18
g13
sg19
g2041
sg21
g22
sbag7
(g8
g9
NtRp2218
(dp2219
g12
g74
sg14
S'Helvetica'
p2220
sg16
I500
sg17
g168
sg18
g13
sg19
g2042
sg21
g22
sbag7
(g8
g9
NtRp2221
(dp2222
g12
g13
sg14
S'Palatino'
p2223
sg16
I700
sg17
g13
sg18
g13
sg19
g2043
sg21
g22
sbag7
(g8
g9
NtRp2224
(dp2225
g12
g13
sg14
S'Helvetica'
p2226
sg16
I500
sg17
g13
sg18
g13
sg19
g2044
sg21
g22
sbasb.